******************************************************************************
                  TI ARM Linker PC v16.9.0                     
******************************************************************************
>> Linked Thu Oct 26 10:06:53 2017

OUTPUT FILE NAME:   <zrfWsnNode_CC2650_LAUNCHXL_TI_for_SensorTag_Synch.out>
ENTRY POINT SYMBOL: "ResetISR"  address: 00006361


MEMORY CONFIGURATION

         name            origin    length      used     unused   attr    fill
----------------------  --------  ---------  --------  --------  ----  --------
  FLASH                 00000000   00020000  00009b10  000164f0  R  X
  SRAM                  20000000   00005000  00002514  00002aec  RW X


SEGMENT ALLOCATION MAP

run origin  load origin   length   init length attrs members
----------  ----------- ---------- ----------- ----- -------
00000000    00000000    0000003c   0000003c    r--
  00000000    00000000    0000003c   0000003c    r-- .resetVecs
00000100    00000100    00009a88   00009a88    r-x
  00000100    00000100    0000003c   0000003c    r-- .const:ti_sysbios_knl_Task_Object__PARAMS__C
  0000013c    0000013c    00000034   00000034    r-- .const:ti_sysbios_knl_Mailbox_Object__PARAMS__C
  00000170    00000170    00000030   00000030    r-- .const:ti_sysbios_family_arm_m3_Hwi_Object__PARAMS__C
  000001a0    000001a0    0000002c   0000002c    r-- .const:ti_sysbios_hal_Hwi_Object__PARAMS__C
  000001cc    000001cc    00000028   00000028    r-- .const:ti_sysbios_heaps_HeapMem_Module__FXNS__C
  000001f4    000001f4    00000028   00000028    r-- .const:ti_sysbios_knl_Swi_Object__PARAMS__C
  0000021c    0000021c    00000024   00000024    r-- .const:ti_sysbios_gates_GateHwi_Module__FXNS__C
  00000240    00000240    00000024   00000024    r-- .const:ti_sysbios_gates_GateMutex_Module__FXNS__C
  00000264    00000264    00000024   00000024    r-- .const:ti_sysbios_heaps_HeapMem_Object__PARAMS__C
  00000288    00000288    00000024   00000024    r-- .const:ti_sysbios_knl_Clock_Object__PARAMS__C
  000002ac    000002ac    00000024   00000024    r-- .const:ti_sysbios_knl_Semaphore_Object__PARAMS__C
  000002d0    000002d0    00000020   00000020    r-- .const:ti_sysbios_family_arm_m3_Hwi_Object__DESC__C
  000002f0    000002f0    00000020   00000020    r-- .const:ti_sysbios_gates_GateHwi_Object__DESC__C
  00000310    00000310    00000020   00000020    r-- .const:ti_sysbios_gates_GateMutex_Object__DESC__C
  00000330    00000330    00000020   00000020    r-- .const:ti_sysbios_hal_Hwi_Object__DESC__C
  00000350    00000350    00000020   00000020    r-- .const:ti_sysbios_heaps_HeapMem_Object__DESC__C
  00000370    00000370    00000020   00000020    r-- .const:ti_sysbios_knl_Clock_Object__DESC__C
  00000390    00000390    00000020   00000020    r-- .const:ti_sysbios_knl_Mailbox_Object__DESC__C
  000003b0    000003b0    00000020   00000020    r-- .const:ti_sysbios_knl_Queue_Object__DESC__C
  000003d0    000003d0    00000020   00000020    r-- .const:ti_sysbios_knl_Semaphore_Object__DESC__C
  000003f0    000003f0    00000020   00000020    r-- .const:ti_sysbios_knl_Swi_Object__DESC__C
  00000410    00000410    00000020   00000020    r-- .const:ti_sysbios_knl_Task_Object__DESC__C
  00000430    00000430    00000018   00000018    r-- .const:ti_sysbios_gates_GateHwi_Object__PARAMS__C
  00000448    00000448    00000018   00000018    r-- .const:ti_sysbios_gates_GateMutex_Object__PARAMS__C
  00000460    00000460    00000018   00000018    r-- .const:ti_sysbios_knl_Queue_Object__PARAMS__C
  00000478    00000478    00000008   00000008    r-- .const:ti_sysbios_knl_Idle_funcList__C
  00000484    00000484    00000004   00000004    r-- .const:ti_sysbios_family_arm_cc26xx_Timer_startupNeeded__C
  00000488    00000488    00000004   00000004    r-- .const:ti_sysbios_family_arm_m3_Hwi_E_alreadyDefined__C
  0000048c    0000048c    00000004   00000004    r-- .const:ti_sysbios_family_arm_m3_Hwi_E_hwiLimitExceeded__C
  00000490    00000490    00000004   00000004    r-- .const:ti_sysbios_family_arm_m3_Hwi_NUM_INTERRUPTS__C
  00000494    00000494    00000004   00000004    r-- .const:ti_sysbios_family_arm_m3_Hwi_Object__count__C
  00000498    00000498    00000004   00000004    r-- .const:ti_sysbios_family_arm_m3_Hwi_Object__table__C
  0000049c    0000049c    00000004   00000004    r-- .const:ti_sysbios_family_arm_m3_Hwi_ccr__C
  000004a0    000004a0    00000004   00000004    r-- .const:ti_sysbios_family_arm_m3_Hwi_excHandlerFunc__C
  000004a4    000004a4    00000004   00000004    r-- .const:ti_sysbios_family_arm_m3_Hwi_nullIsrFunc__C
  000004a8    000004a8    00000004   00000004    r-- .const:ti_sysbios_family_arm_m3_Hwi_numSparseInterrupts__C
  000004ac    000004ac    00000004   00000004    r-- .const:ti_sysbios_family_arm_m3_Hwi_priGroup__C
  000004b0    000004b0    00000004   00000004    r-- .const:ti_sysbios_family_arm_m3_TaskSupport_stackAlignment__C
  000004b4    000004b4    00000004   00000004    r-- .const:ti_sysbios_heaps_HeapMem_E_memory__C
  000004b8    000004b8    00000004   00000004    r-- .const:ti_sysbios_heaps_HeapMem_Module__gateObj__C
  000004bc    000004bc    00000004   00000004    r-- .const:ti_sysbios_heaps_HeapMem_Object__count__C
  000004c0    000004c0    00000004   00000004    r-- .const:ti_sysbios_heaps_HeapMem_Object__table__C
  000004c4    000004c4    00000004   00000004    r-- .const:ti_sysbios_heaps_HeapMem_reqAlign__C
  000004c8    000004c8    00000004   00000004    r-- .const:ti_sysbios_knl_Clock_serviceMargin__C
  000004cc    000004cc    00000004   00000004    r-- .const:ti_sysbios_knl_Mailbox_Object__count__C
  000004d0    000004d0    00000004   00000004    r-- .const:ti_sysbios_knl_Mailbox_Object__table__C
  000004d4    000004d4    00000004   00000004    r-- .const:ti_sysbios_knl_Queue_Object__count__C
  000004d8    000004d8    00000004   00000004    r-- .const:ti_sysbios_knl_Queue_Object__table__C
  000004dc    000004dc    00000004   00000004    r-- .const:ti_sysbios_knl_Swi_Object__count__C
  000004e0    000004e0    00000004   00000004    r-- .const:ti_sysbios_knl_Swi_Object__table__C
  000004e4    000004e4    00000004   00000004    r-- .const:ti_sysbios_knl_Swi_numPriorities__C
  000004e8    000004e8    00000004   00000004    r-- .const:ti_sysbios_knl_Task_Object__count__C
  000004ec    000004ec    00000004   00000004    r-- .const:ti_sysbios_knl_Task_Object__table__C
  000004f0    000004f0    00000004   00000004    r-- .const:ti_sysbios_knl_Task_allBlockedFunc__C
  000004f4    000004f4    00000004   00000004    r-- .const:ti_sysbios_knl_Task_defaultStackHeap__C
  000004f8    000004f8    00000004   00000004    r-- .const:ti_sysbios_knl_Task_defaultStackSize__C
  000004fc    000004fc    00000004   00000004    r-- .const:ti_sysbios_knl_Task_numConstructedTasks__C
  00000502    00000502    00000002   00000002    r-- .const:ti_sysbios_family_arm_cc26xx_Timer_Module__id__C
  00000504    00000504    00000002   00000002    r-- .const:ti_sysbios_family_arm_cc26xx_TimestampProvider_useClockTimer__C
  00000506    00000506    00000002   00000002    r-- .const:ti_sysbios_family_arm_m3_Hwi_Module__id__C
  00000508    00000508    00000002   00000002    r-- .const:ti_sysbios_gates_GateHwi_Module__id__C
  0000050a    0000050a    00000002   00000002    r-- .const:ti_sysbios_gates_GateMutex_Module__id__C
  0000050c    0000050c    00000002   00000002    r-- .const:ti_sysbios_heaps_HeapMem_Module__id__C
  0000050e    0000050e    00000002   00000002    r-- .const:ti_sysbios_knl_Task_initStackFlag__C
  00000510    00000510    00000001   00000001    r-- .const:ti_sysbios_knl_Clock_tickMode__C
  00000514    00000514    00000008   00000008    r-- .const:xdc_runtime_Startup_firstFxns__C
  0000051c    0000051c    00000008   00000008    r-- .const:xdc_runtime_Startup_lastFxns__C
  00000524    00000524    00000004   00000004    r-- .const:xdc_runtime_Assert_E_assertFailed__C
  00000528    00000528    00000004   00000004    r-- .const:xdc_runtime_Error_E_memory__C
  0000052c    0000052c    00000004   00000004    r-- .const:xdc_runtime_Error_policyFxn__C
  00000530    00000530    00000004   00000004    r-- .const:xdc_runtime_IGateProvider_Interface__BASE__C
  00000534    00000534    00000004   00000004    r-- .const:xdc_runtime_IHeap_Interface__BASE__C
  00000538    00000538    00000004   00000004    r-- .const:xdc_runtime_IModule_Interface__BASE__C
  0000053c    0000053c    00000004   00000004    r-- .const:xdc_runtime_Main_Module__diagsEnabled__C
  00000540    00000540    00000004   00000004    r-- .const:xdc_runtime_Main_Module__diagsIncluded__C
  00000544    00000544    00000004   00000004    r-- .const:xdc_runtime_Main_Module__diagsMask__C
  00000548    00000548    00000004   00000004    r-- .const:xdc_runtime_Memory_defaultHeapInstance__C
  0000054c    0000054c    00000004   00000004    r-- .const:xdc_runtime_Startup_execImpl__C
  00000550    00000550    00000004   00000004    r-- .const:xdc_runtime_Startup_maxPasses__C
  00000554    00000554    00000004   00000004    r-- .const:xdc_runtime_Startup_sfxnRts__C
  00000558    00000558    00000004   00000004    r-- .const:xdc_runtime_Startup_sfxnTab__C
  0000055c    0000055c    00000004   00000004    r-- .const:xdc_runtime_Startup_startModsFxn__C
  00000560    00000560    00000004   00000004    r-- .const:xdc_runtime_SysCallback_abortFxn__C
  00000564    00000564    00000004   00000004    r-- .const:xdc_runtime_SysCallback_exitFxn__C
  00000568    00000568    00000004   00000004    r-- .const:xdc_runtime_System_abortFxn__C
  0000056c    0000056c    00000004   00000004    r-- .const:xdc_runtime_System_exitFxn__C
  00000570    00000570    00000004   00000004    r-- .const:xdc_runtime_System_maxAtexitHandlers__C
  00000574    00000574    00000004   00000004    r-- .const:xdc_runtime_Text_charTab__C
  00000578    00000578    00000004   00000004    r-- .const:xdc_runtime_Text_nameEmpty__C
  0000057c    0000057c    00000004   00000004    r-- .const:xdc_runtime_Text_nameStatic__C
  00000580    00000580    00000004   00000004    r-- .const:xdc_runtime_Text_nameUnknown__C
  00000584    00000584    00000002   00000002    r-- .const:xdc_runtime_Main_Module__id__C
  00000586    00000586    00000002   00000002    r-- .const:xdc_runtime_Memory_Module__id__C
  00000588    00000588    00000002   00000002    r-- .const:xdc_runtime_Text_charCnt__C
  0000058a    0000058a    00000002   00000002    r-- .const:xdc_runtime_Text_isLoaded__C
  0000058c    0000058c    00000001   00000001    r-- .const:xdc_runtime_Error_policy__C
  00000590    00000590    00000004   00000004    r-- .const:ti_sysbios_rom_ROM_AONRTCChannelEnable
  00000594    00000594    00000004   00000004    r-- .const:ti_sysbios_rom_ROM_AONRTCCompareValueSet
  00000598    00000598    00000004   00000004    r-- .const:ti_sysbios_rom_ROM_AONRTCCurrentCompareValueGet
  0000059c    0000059c    00000004   00000004    r-- .const:ti_sysbios_rom_ROM_AONRTCEventClear
  000005a0    000005a0    00000004   00000004    r-- .const:ti_sysbios_rom_ROM_ti_sysbios_family_arm_cc26xx_Timer_getCount64__E
  000005a4    000005a4    00000004   00000004    r-- .const:ti_sysbios_rom_ROM_ti_sysbios_family_arm_cc26xx_Timer_getCurrentTick__E
  000005a8    000005a8    00000004   00000004    r-- .const:ti_sysbios_rom_ROM_ti_sysbios_family_arm_cc26xx_Timer_getMaxTicks__E
  000005ac    000005ac    00000004   00000004    r-- .const:ti_sysbios_rom_ROM_ti_sysbios_family_arm_cc26xx_Timer_initDevice__I
  000005b0    000005b0    00000004   00000004    r-- .const:ti_sysbios_rom_ROM_ti_sysbios_family_arm_cc26xx_Timer_setNextTick__E
  000005b4    000005b4    00000004   00000004    r-- .const:ti_sysbios_rom_ROM_ti_sysbios_family_arm_cc26xx_Timer_setThreshold__I
  000005b8    000005b8    00000004   00000004    r-- .const:ti_sysbios_rom_ROM_ti_sysbios_family_arm_cc26xx_Timer_start__E
  000005bc    000005bc    00000004   00000004    r-- .const:ti_sysbios_rom_ROM_ti_sysbios_family_arm_cc26xx_TimestampProvider_get32__E
  000005c0    000005c0    00000004   00000004    r-- .const:ti_sysbios_rom_ROM_xdc_runtime_Startup_getState__I
  000005c4    000005c4    00000004   00000004    r-- .const:ti_sysbios_rom_ROM_xdc_runtime_System_SupportProxy_abort__E
  000005c8    000005c8    00000004   00000004    r-- .const:ti_sysbios_rom_ROM_xdc_runtime_System_SupportProxy_exit__E
  000005cc    000005cc    00000004   00000004    r-- .const:ti_sysbios_gates_GateMutex_Instance_State_sem__O
  000005d0    000005d0    00000004   00000004    r-- .const:ti_sysbios_knl_Clock_Module_State_clockQ__O
  000005d4    000005d4    00000004   00000004    r-- .const:ti_sysbios_knl_Mailbox_Instance_State_dataQue__O
  000005d8    000005d8    00000004   00000004    r-- .const:ti_sysbios_knl_Mailbox_Instance_State_dataSem__O
  000005dc    000005dc    00000004   00000004    r-- .const:ti_sysbios_knl_Mailbox_Instance_State_freeQue__O
  000005e0    000005e0    00000004   00000004    r-- .const:ti_sysbios_knl_Mailbox_Instance_State_freeSem__O
  000005e4    000005e4    00000004   00000004    r-- .const:ti_sysbios_knl_Semaphore_Instance_State_pendQ__O
  000005e8    000005e8    00000004   00000004    r-- .const:ti_sysbios_knl_Task_Module_State_inactiveQ__O
  000005ec    000005ec    0000716c   0000716c    r-x .text
  00007758    00007758    000020a8   000020a8    r-- .const
  00009800    00009800    00000388   00000388    r-- .cinit
0001ffa8    0001ffa8    00000058   00000058    r--
  0001ffa8    0001ffa8    00000058   00000058    r-- .ccfg
20000100    20000100    00002150   00000000    rw-
  20000100    20000100    00000044   00000000    rw- .data:ti_sysbios_knl_Task_Module__state__V
  20000144    20000144    00000034   00000000    rw- .data:ti_sysbios_family_arm_m3_Hwi_Module__state__V
  20000178    20000178    0000002c   00000000    rw- .data:ti_sysbios_knl_Clock_Module__state__V
  200001a4    200001a4    00000024   00000000    rw- .data:ti_sysbios_BIOS_Module__state__V
  200001c8    200001c8    0000001c   00000000    rw- .data:ti_sysbios_knl_Swi_Module__state__V
  200001e4    200001e4    00000008   00000000    rw- .data:ti_sysbios_family_arm_cc26xx_Timer_Module__state__V
  200001ec    200001ec    00000004   00000000    rw- .data:ti_sysbios_family_arm_cc26xx_TimestampProvider_Module__state__V
  200001f0    200001f0    00000008   00000000    rw- .data:xdc_runtime_Startup_Module__state__V
  200001f8    200001f8    00000008   00000000    rw- .data:xdc_runtime_System_Module__state__V
  20000200    20000200    00000004   00000000    rw- .data:xdc_runtime_Memory_Module__state__V
  20000208    20000208    00001a30   00000000    rw- .bss
  20001c38    20001c38    00000618   00000000    rw- .data
20004d00    20004d00    00000300   00000000    rw-
  20004d00    20004d00    00000300   00000000    rw- .stack


SECTION ALLOCATION MAP

 output                                  attributes/
section   page    origin      length       input sections
--------  ----  ----------  ----------   ----------------
.text      0    000005ec    0000716c     
                  000005ec    000003b8     rf_singleMode_cc26xxware.aem3 : RFCC26XX_singleMode.oem3 (.text:fsmActiveState)
                  000009a4    00000324     EasyLink.obj (.text:EasyLink_init)
                  00000cc8    000002a0     rtsv7M3_T_le_eabi.lib : mktime.obj (.text)
                  00000f68    00000228     drivers_cc26xxware.aem3 : PowerCC26XX.oem3 (.text:Power_sleep)
                  00001190    0000021e     rtsv7M3_T_le_eabi.lib : ll_div_t2.obj (.text)
                  000013ae    00000002     driverlib.lib : rfc.obj (.text:NOROM_RFCAdi3VcoLdoVoltageMode)
                  000013b0    00000204                   : sys_ctrl.obj (.text:NOROM_SysCtrlSetRechargeBeforePowerDown)
                  000015b4    000001f4     rtsv7M3_T_le_eabi.lib : ull_div_t2.obj (.text)
                  000017a8    000001f0     NodeRadioTask.obj (.text:nodeRadioTaskFunction)
                  00001998    000001dc     rf_singleMode_cc26xxware.aem3 : RFCC26XX_singleMode.oem3 (.text:RF_postCmd)
                  00001b74    000001d0     drivers_cc26xxware.aem3 : PowerCC26XX_calibrateRCOSC.oem3 (.text:calibrateRcoscHf1)
                  00001d44    000001c4                             : PINCC26XX.oem3 (.text:PIN_init)
                  00001f08    0000018c     EasyLink.obj (.text:rxDoneCallback)
                  00002094    00000184     drivers_cc26xxware.aem3 : PowerCC26XX_calibrateRCOSC.oem3 (.text:PowerCC26XX_doCalibrate)
                  00002218    00000170     NodeTask.obj (.text:CheckParkingSensor)
                  00002388    00000170     EasyLink.obj (.text:EasyLink_receiveAsync)
                  000024f8    00000168     rf_singleMode_cc26xxware.aem3 : RFCC26XX_singleMode.oem3 (.text:fsmSetupState)
                  00002660    00000160     EasyLink.obj (.text:enableTestMode)
                  000027c0    00000158     SensorMpu9250.obj (.text:SensorMpu9250_magRead)
                  00002918    00000150     smartrf_settings.obj (.text:rf_patch_rfe_genfsk)
                  00002a68    00000150     smartrf_settings_predefined.obj (.text:rf_patch_rfe_genfsk)
                  00002bb8    00000140     EasyLink.obj (.text:EasyLink_transmit)
                  00002cf8    00000138     rtsv7M3_T_le_eabi.lib : localtim.obj (.text)
                  00002e30    00000130     driverlib.lib : setup_rom.obj (.text:NOROM_SetupAfterColdResetWakeupFromShutDownCfg3)
                  00002f60    00000128     rf_singleMode_cc26xxware.aem3 : RFCC26XX_singleMode.oem3 (.text:rf_init)
                  00003088    0000011c     drivers_cc26xxware.aem3 : PowerCC26XX.oem3 (.text:Power_init)
                  000031a4    00000118     rf_singleMode_cc26xxware.aem3 : RFCC26XX_singleMode.oem3 (.text:hwiFxnCpe0Active)
                  000032bc    00000114     smartrf_settings.obj (.text:rf_patch_mce_genfsk)
                  000033d0    00000114     smartrf_settings_predefined.obj (.text:rf_patch_mce_genfsk)
                  000034e4    00000108     rf_singleMode_cc26xxware.aem3 : RFCC26XX_singleMode.oem3 (.text:RF_close)
                  000035ec    000000f8     drivers_cc26xxware.aem3 : I2CCC26XX.oem3 (.text:I2CCC26XX_open)
                  000036e4    000000f0     NodeTask.obj (.text:nodeTaskFunction)
                  000037d4    000000e8     drivers_cc26xxware.aem3 : I2CCC26XX.oem3 (.text:I2CCC26XX_hwiFxn)
                  000038bc    000000e8     rom_sysbios.aem3 : rom_sysbios.obj (.text:ti_sysbios_knl_Event_pend__E)
                  000039a4    000000e4     driverlib.lib : setup_rom.obj (.text:NOROM_SetupAfterColdResetWakeupFromShutDownCfg2)
                  00003a88    000000e0     drivers_cc26xxware.aem3 : PINCC26XX.oem3 (.text:PINCC26XX_setIoCfg)
                  00003b68    000000d8     EasyLink.obj (.text:EasyLink_enableRxAddrFilter)
                  00003c40    000000d4     power_cc26xx_tirtos.aem3 : PowerCC26XX_tirtos.oem3 (.text:PowerCC26XX_standbyPolicy)
                  00003d14    000000d4     drivers_cc26xxware.aem3 : PowerCC26XX.oem3 (.text:Power_releaseDependency)
                  00003de8    000000d0                             : PowerCC26XX.oem3 (.text:Power_setDependency)
                  00003eb8    000000d0     PersonlizationTask.obj (.text:getSleepValue)
                  00003f88    000000cc     rf_singleMode_cc26xxware.aem3 : RFCC26XX_singleMode.oem3 (.text:RF_open)
                  00004054    000000c4                                   : RFCC26XX_singleMode.oem3 (.text:fsmPowerUpState)
                  00004118    000000c2     drivers_cc26xxware.aem3 : I2CCC26XX.oem3 (.text:I2CCC26XX_transfer)
                  000041da    00000002     driverlib.lib : rfc.obj (.text:NOROM_RFCRTrim)
                  000041dc    000000c0     EasyLink.obj (.text:EasyLink_setCtrl)
                  0000429c    000000c0     NodeRadioTask.obj (.text:sendPmPacket)
                  0000435c    000000bc     NodeTask.obj (.text:CalibrateParkingSensor)
                  00004418    000000bc     driverlib.lib : setup.obj (.text:TrimAfterColdResetWakeupFromShutDown)
                  000044d4    000000b0     NodeRadioTask.obj (.text:NodeRadioTask_init)
                  00004584    000000a8     driverlib.lib : setup.obj (.text:NOROM_SetupTrimDevice)
                  0000462c    000000a0     SensorI2C.obj (.text:SensorI2C_select)
                  000046cc    000000a0     auto_init.aem3 : auto_init.oem3 (.text)
                  0000476c    0000009c     rtsv7M3_T_le_eabi.lib : memcpy_t2.obj (.text)
                  00004808    00000098     SensorMpu9250.obj (.text:sensorMagInit)
                  000048a0    00000098     rom_sysbios.aem3 : rom_sysbios.obj (.text:ti_sysbios_knl_Clock_workFuncDynamic__E)
                  00004938    00000094     drivers_cc26xxware.aem3 : PINCC26XX.oem3 (.text:PIN_open)
                  000049cc    00000090                             : I2CCC26XX.oem3 (.text:I2CCC26XX_cancel)
                  00004a5c    00000090                             : PowerCC26XX.oem3 (.text:switchXOSCHFclockFunc)
                  00004aec    0000008c                             : I2CCC26XX.oem3 (.text:I2CCC26XX_primeTransfer)
                  00004b78    00000088     SensorMpu9250.obj (.text:sensorMpu9250WakeUp)
                  00004c00    00000084     rf_singleMode_cc26xxware.aem3 : RFCC26XX_singleMode.oem3 (.text:swiFxnHw)
                  00004c84    00000080                                   : RFCC26XX_singleMode.oem3 (.text:RF_pendCmd)
                  00004d04    00000080     SensorMpu9250.obj (.text:SensorMpu9250_reset)
                  00004d84    0000007c     drivers_cc26xxware.aem3 : PowerCC26XX.oem3 (.text:disableLFClockQualifiers)
                  00004e00    0000007a     rtsv7M3_T_le_eabi.lib : memset_t2.obj (.text)
                  00004e7a    00000002     rf_singleMode_cc26xxware.aem3 : RFCC26XX_singleMode.oem3 (.text:defaultErrCb)
                  00004e7c    00000078     driverlib.lib : setup_rom.obj (.text:NOROM_SetupAfterColdResetWakeupFromShutDownCfg1)
                  00004ef4    00000078     NodeRadioTask.obj (.text:NodeRadioTask_sendParkingData)
                  00004f6c    00000078     NodeRadioTask.obj (.text:rxDoneCallback)
                  00004fe4    00000074     drivers_cc26xxware.aem3 : PowerCC26XX_calibrateRCOSC.oem3 (.text:PowerCC26XX_auxISR)
                  00005058    00000074                             : PowerCC26XX_calibrateRCOSC.oem3 (.text:calibrateRcoscHf2)
                  000050cc    00000074     rf_singleMode_cc26xxware.aem3 : RFCC26XX_singleMode.oem3 (.text:decActiveClientCnt)
                  00005140    00000074                                   : RFCC26XX_singleMode.oem3 (.text:fsmPowerDownState)
                  000051b4    00000074     NodeRadioTask.obj (.text:resendPacket)
                  00005228    00000074     rom_sysbios.aem3 : rom_sysbios.obj (.text:ti_sysbios_family_arm_cc26xx_Timer_start__E)
                  0000529c    00000070     driverlib.lib : chipinfo.obj (.text:NOROM_ChipInfo_GetHwRevision)
                  0000530c    00000070     SensorI2C.obj (.text:SensorI2C_open)
                  0000537c    00000070     SensorMpu9250.obj (.text:SensorMpu9250_magReset)
                  000053ec    00000070     rom_sysbios.aem3 : rom_sysbios.obj (.text:ti_sysbios_knl_Event_post__E)
                  0000545c    0000006c     driverlib.lib : setup_rom.obj (.text:NOROM_SetupGetTrimForAmpcompCtrl)
                  000054c8    0000006c     NodeTask.obj (.text:NodeTask_init)
                  00005534    0000006c     drivers_cc26xxware.aem3 : PowerCC26XX.oem3 (.text:PowerCC26XX_calibrate)
                  000055a0    00000068     driverlib.lib : setup_rom.obj (.text:NOROM_SetupGetTrimForAnabypassValue1)
                  00005608    00000068                   : sys_ctrl.obj (.text:NOROM_SysCtrl_DCDC_VoltageConditionalControl)
                  00005670    00000068     rf_singleMode_cc26xxware.aem3 : RFCC26XX_singleMode.oem3 (.text:RF_getCurrentTime)
                  000056d8    00000068     SensorMpu9250.obj (.text:SensorMpu9250_test)
                  00005740    00000068     rtsv7M3_T_le_eabi.lib : copy_decompress_lzss.obj (.text:decompress:lzss)
                  000057a8    00000064     drivers_cc26xxware.aem3 : I2CCC26XX.oem3 (.text:I2CCC26XX_close)
                  0000580c    00000064                             : I2CCC26XX.oem3 (.text:I2CCC26XX_initIO)
                  00005870    00000064     SensorI2C.obj (.text:SensorI2C_writeReg)
                  000058d4    00000060     drivers_cc26xxware.aem3 : PowerCC26XX_calibrateRCOSC.oem3 (.text:PowerCC26XX_RCOSC_clockFunc)
                  00005934    00000060     SensorTmp007.obj (.text:SensorTmp007_enable)
                  00005994    00000060     rf_singleMode_cc26xxware.aem3 : RFCC26XX_singleMode.oem3 (.text:fsmXOSCState)
                  000059f4    00000060     drivers_cc26xxware.aem3 : PowerCC26XX_calibrateRCOSC.oem3 (.text:updateSubSecInc)
                  00005a54    0000005c     driverlib.lib : osc.obj (.text:NOROM_OSCHF_AttemptToSwitchToXosc)
                  00005ab0    0000005c                   : sys_ctrl.obj (.text:NOROM_SysCtrlAdjustRechargeAfterPowerDown)
                  00005b0c    0000005c     drivers_cc26xxware.aem3 : PINCC26XX.oem3 (.text:PIN_remove)
                  00005b68    0000005c     SensorMpu9250.obj (.text:sensorMagEnable)
                  00005bc4    0000005c     rfExamples_pem3.oem3 (.text:xdc_runtime_Startup_getState__I)
                  00005c20    00000058     drivers_cc26xxware.aem3 : I2CCC26XX.oem3 (.text:I2CCC26XX_swiFxn)
                  00005c78    00000058                             : PowerCC26XX_calibrateRCOSC.oem3 (.text:PowerCC26XX_initiateCalibration)
                  00005cd0    00000054     SensorI2C.obj (.text:SensorI2C_writeRead)
                  00005d24    00000054     drivers_cc26xxware.aem3 : PowerCC26XX.oem3 (.text:configureXOSCHF)
                  00005d78    00000054     rf_singleMode_cc26xxware.aem3 : RFCC26XX_singleMode.oem3 (.text:hwiFxnHw)
                  00005dcc    00000054                                   : RFCC26XX_singleMode.oem3 (.text:ratChanFree)
                  00005e20    00000050     driverlib.lib : setup_rom.obj (.text:NOROM_SetupSetCacheModeAccordingToCcfgSetting)
                  00005e70    00000050     rf_singleMode_cc26xxware.aem3 : RFCC26XX_singleMode.oem3 (.text:dispatchOpWhen)
                  00005ec0    00000050     SensorMpu9250.obj (.text:sensorMpu9250SelectAxes)
                  00005f10    00000050     rf_singleMode_cc26xxware.aem3 : RFCC26XX_singleMode.oem3 (.text:syncCb)
                  00005f60    0000004c     driverlib.lib : chipinfo.obj (.text:NOROM_ChipInfo_GetChipType)
                  00005fac    0000004c                   : osc.obj (.text:NOROM_OSCClockSourceSet)
                  00005ff8    0000004c     SensorI2C.obj (.text:SensorI2C_write)
                  00006044    0000004c     rf_singleMode_cc26xxware.aem3 : RFCC26XX_singleMode.oem3 (.text:applyRfCorePatch)
                  00006090    0000004c     rtsv7M3_T_le_eabi.lib : cpy_tbl.obj (.text)
                  000060dc    00000048     drivers_cc26xxware.aem3 : I2CCC26XX.oem3 (.text:I2CCC26XX_initHw)
                  00006124    00000048     driverlib.lib : chipinfo.obj (.text:NOROM_ChipInfo_GetChipFamily)
                  0000616c    00000048                   : ddi.obj (.text:NOROM_DDI16BitfieldWrite)
                  000061b4    00000048     drivers_cc26xxware.aem3 : PINCC26XX.oem3 (.text:PIN_swi)
                  000061fc    00000048     rf_singleMode_cc26xxware.aem3 : RFCC26XX_singleMode.oem3 (.text:RF_runCmd)
                  00006244    00000048     SensorMpu9250.obj (.text:SensorMpu9250_enable)
                  0000628c    00000048     NodeTask.obj (.text:comparechange)
                  000062d4    00000048     drivers_cc26xxware.aem3 : PowerCC26XX.oem3 (.text:notify)
                  0000631c    00000044     NodeTask.obj (.text:DisableOtherSensors)
                  00006360    00000044     boot.aem3 : boot.oem3 (.text)
                  000063a4    00000044     rfWsnNode.obj (.text:main)
                  000063e8    00000040     driverlib.lib : ddi.obj (.text:NOROM_DDI16BitfieldRead)
                  00006428    00000040     rtsv7M3_T_le_eabi.lib : u_divt2.obj (.text)
                  00006468    00000040     SensorMpu9250.obj (.text:sensorMpu9250SetBypass)
                  000064a8    0000003c     driverlib.lib : osc.obj (.text:NOROM_OSC_HPOSCRelativeFrequencyOffsetGet)
                  000064e4    0000003c                   : rfc.obj (.text:NOROM_RFCSynthPowerDown)
                  00006520    0000003c     drivers_cc26xxware.aem3 : PINCC26XX.oem3 (.text:PIN_setOutputValue)
                  0000655c    0000003c     smartrf_settings.obj (.text:configureGenfskPatch)
                  00006598    0000003c     smartrf_settings_predefined.obj (.text:configureGenfskPatch)
                  000065d4    0000003c     SensorMpu9250.obj (.text:sensorMpuSleep)
                  00006610    00000038     drivers_cc26xxware.aem3 : I2C.oem3 (.text:I2C_init)
                  00006648    00000038                             : PINCC26XX.oem3 (.text:PIN_setInterrupt)
                  00006680    00000038     SensorOpt3001.obj (.text:SensorOpt3001_enable)
                  000066b8    00000038     rom_sysbios.aem3 : rom_sysbios.obj (.text:ti_sysbios_family_arm_cc26xx_Seconds_get__E)
                  000066f0    00000038                      : rom_sysbios.obj (.text:ti_sysbios_family_arm_cc26xx_Timer_getCurrentTick__E)
                  00006728    00000036     rf_singleMode_cc26xxware.aem3 : RFCC26XX_singleMode.oem3 (.text:updateImplicitState)
                  0000675e    00000002     drivers_cc26xxware.aem3 : PowerCC26XX.oem3 (.text:emptyClockFunc)
                  00006760    00000034     driverlib.lib : osc.obj (.text:NOROM_OSCHF_SwitchToRcOscTurnOffXosc)
                  00006794    00000034     drivers_cc26xxware.aem3 : PINCC26XX.oem3 (.text:PIN_setConfig)
                  000067c8    00000034     rf_singleMode_cc26xxware.aem3 : RFCC26XX_singleMode.oem3 (.text:Q_push)
                  000067fc    00000034     rom_sysbios.aem3 : rom_sysbios.obj (.text:ti_sysbios_family_arm_cc26xx_Timer_initDevice__I)
                  00006830    00000032                      : rom_sysbios.obj (.text:ti_sysbios_family_arm_cc26xx_Timer_setNextTick__E)
                  00006862    00000002     smartrf_settings.obj (.text:enterGenfskSysPatch)
                  00006864    00000030     drivers_cc26xxware.aem3 : I2C.oem3 (.text:I2C_open)
                  00006894    00000030     driverlib.lib : setup_rom.obj (.text:NOROM_SetupSetAonRtcSubSecInc)
                  000068c4    00000030     drivers_cc26xxware.aem3 : PowerCC26XX.oem3 (.text:Power_releaseConstraint)
                  000068f4    00000030                             : PowerCC26XX.oem3 (.text:Power_setConstraint)
                  00006924    00000030     rf_singleMode_cc26xxware.aem3 : RFCC26XX_singleMode.oem3 (.text:clkPowerUpFxn)
                  00006954    00000030     rfExamples_pem3.oem3 (.text:ti_sysbios_BIOS_atExitFunc__I)
                  00006984    00000030     rfExamples_pem3.oem3 (.text:ti_sysbios_BIOS_startFunc__I)
                  000069b4    00000030     rom_sysbios.aem3 : rom_sysbios.obj (.text:ti_sysbios_family_arm_cc26xx_Timer_setThreshold__I)
                  000069e4    0000002c     driverlib.lib : ddi.obj (.text:NOROM_DDI32RegWrite)
                  00006a10    0000002c                   : setup_rom.obj (.text:NOROM_SetupGetTrimForRadcExtCfg)
                  00006a3c    0000002c     drivers_cc26xxware.aem3 : PINCC26XX.oem3 (.text:PINCC26XX_setMux)
                  00006a68    0000002c     EasyLink.obj (.text:asyncCmdCallback)
                  00006a94    0000002c     rf_singleMode_cc26xxware.aem3 : RFCC26XX_singleMode.oem3 (.text:getCmd)
                  00006ac0    0000002c     rom_sysbios.aem3 : rom_sysbios.obj (.text:ti_sysbios_knl_Clock_getTicksUntilInterrupt__E)
                  00006aec    0000002c     rfExamples_pem3.oem3 (.text:ti_sysbios_knl_Event_construct)
                  00006b18    0000002c     rom_sysbios.aem3 : rom_sysbios.obj (.text:ti_sysbios_knl_Event_pendTimeout__I)
                  00006b44    00000028     driverlib.lib : aon_batmon.obj (.text:NOROM_AONBatMonTemperatureGetDegC)
                  00006b6c    00000028     drivers_cc26xxware.aem3 : PowerCC26XX.oem3 (.text:Power_registerNotify)
                  00006b94    00000028     rf_singleMode_cc26xxware.aem3 : RFCC26XX_singleMode.oem3 (.text:Q_end)
                  00006bbc    00000028     driverlib.lib : adi.obj (.text:SafeHapiVoid)
                  00006be4    00000026     drivers_cc26xxware.aem3 : List.oem3 (.text:List_put)
                  00006c0a    00000002     smartrf_settings_predefined.obj (.text:enterGenfskSysPatch)
                  00006c0c    00000024     drivers_cc26xxware.aem3 : PINCC26XX.oem3 (.text:PINCC26XX_getPinCount)
                  00006c30    00000024     SensorMpu9250.obj (.text:SensorMpu9250_powerOff)
                  00006c54    00000024     SensorMpu9250.obj (.text:SensorMpu9250_powerOn)
                  00006c78    00000024     drivers_cc26xxware.aem3 : PowerCC26XX_calibrateRCOSC.oem3 (.text:getTdcSemaphore)
                  00006c9c    00000024     rf_singleMode_cc26xxware.aem3 : RFCC26XX_singleMode.oem3 (.text:hwiFxnCpe0PowerFsm)
                  00006cc0    00000024     rfExamples_pem3.oem3 (.text:ti_sysbios_BIOS_registerRTSLock__I)
                  00006ce4    00000024     rfExamples_pem3.oem3 (.text:ti_sysbios_BIOS_removeRTSLock__I)
                  00006d08    00000024     rom_sysbios.aem3 : rom_sysbios.obj (.text:ti_sysbios_family_arm_cc26xx_Seconds_set__E)
                  00006d2c    00000024                      : rom_sysbios.obj (.text:ti_sysbios_family_arm_cc26xx_Timer_getMaxTicks__E)
                  00006d50    00000020     driverlib.lib : rfc.obj (.text:NOROM_RFCDoorbellSendTo)
                  00006d70    00000020                   : rfc.obj (.text:NOROM_RFCRfTrimRead)
                  00006d90    00000020                   : setup_rom.obj (.text:NOROM_SetupGetTrimForXoscHfCtl)
                  00006db0    00000020     drivers_cc26xxware.aem3 : PowerCC26XX.oem3 (.text:Power_unregisterNotify)
                  00006dd0    00000020     rf_singleMode_cc26xxware.aem3 : RFCC26XX_singleMode.oem3 (.text:allocCmd)
                  00006df0    00000020     NodeRadioTask.obj (.text:returnRadioOperationStatus)
                  00006e10    00000020     rfExamples_pem3.oem3 (.text:ti_sysbios_BIOS_rtsLock__I)
                  00006e30    00000020     rom_sysbios.aem3 : rom_sysbios.obj (.text:ti_sysbios_family_arm_cc26xx_Timer_dynamicStub__E)
                  00006e50    00000020                      : rom_sysbios.obj (.text:ti_sysbios_knl_Clock_stop__E)
                  00006e70    00000020                      : rom_sysbios.obj (.text:ti_sysbios_knl_Event_checkEvents__I)
                  00006e90    0000001e     drivers_cc26xxware.aem3 : PINCC26XX.oem3 (.text:PIN_close)
                  00006eae    0000001e                             : PowerCC26XX.oem3 (.text:Power_getTransitionLatency)
                  00006ecc    0000001c     driverlib.lib : osc.obj (.text:NOROM_OSCClockSourceGet)
                  00006ee8    0000001c                   : setup_rom.obj (.text:NOROM_SetupGetTrimForAmpcompTh2)
                  00006f04    0000001c                   : setup_rom.obj (.text:NOROM_SetupGetTrimForRcOscLfRtuneCtuneTrim)
                  00006f20    0000001c     drivers_cc26xxware.aem3 : PINCC26XX.oem3 (.text:PINCC26XX_setIoCfgMux)
                  00006f3c    0000001c                             : PINCC26XX.oem3 (.text:PIN_hwi)
                  00006f58    0000001c     SensorI2C.obj (.text:SensorI2C_readReg)
                  00006f74    0000001c     smartrf_settings.obj (.text:enterGenfskCpePatch)
                  00006f90    0000001c     smartrf_settings_predefined.obj (.text:enterGenfskCpePatch)
                  00006fac    0000001a     drivers_cc26xxware.aem3 : List.oem3 (.text:List_remove)
                  00006fc6    0000001a     SensorMpu9250.obj (.text:SensorMpu9250_powerIsOn)
                  00006fe0    00000018     driverlib.lib : aon_rtc.obj (.text:NOROM_AONRTCCurrentCompareValueGet)
                  00006ff8    00000018                   : chipinfo.obj (.text:NOROM_ChipInfo_GetPackageType)
                  00007010    00000018                   : osc.obj (.text:NOROM_OSCHF_TurnOnXosc)
                  00007028    00000018                   : rfc.obj (.text:NOROM_RFCCpeIntGetAndClear)
                  00007040    00000018                   : setup_rom.obj (.text:NOROM_SetupGetTrimForAdcShModeEn)
                  00007058    00000018                   : setup_rom.obj (.text:NOROM_SetupGetTrimForAdcShVbufEn)
                  00007070    00000018                   : setup_rom.obj (.text:NOROM_SetupGetTrimForAmpcompTh1)
                  00007088    00000018                   : setup_rom.obj (.text:NOROM_SetupGetTrimForDblrLoopFilterResetVoltage)
                  000070a0    00000018                   : setup_rom.obj (.text:NOROM_SetupGetTrimForRcOscLfIBiasTrim)
                  000070b8    00000018                   : setup_rom.obj (.text:NOROM_SetupGetTrimForXoscLfRegulatorAndCmirrwrRatio)
                  000070d0    00000018     drivers_cc26xxware.aem3 : PowerCC26XX.oem3 (.text:Power_idleFunc)
                  000070e8    00000018     rf_singleMode_cc26xxware.aem3 : RFCC26XX_singleMode.oem3 (.text:Q_pop)
                  00007100    00000018     SensorI2C.obj (.text:SensorI2C_close)
                  00007118    00000018     drivers_cc26xxware.aem3 : PowerCC26XX.oem3 (.text:configureRFCoreClocks)
                  00007130    00000018     rtsv7M3_T_le_eabi.lib : args_main.obj (.text)
                  00007148    00000018                           : ll_mul_t2.obj (.text)
                  00007160    00000018     rf_singleMode_cc26xxware.aem3 : RFCC26XX_singleMode.oem3 (.text:swiFxnFsm)
                  00007178    00000018     rfExamples_pem3.oem3 (.text:ti_sysbios_BIOS_rtsUnlock__I)
                  00007190    00000018     rom_sysbios.aem3 : rom_sysbios.obj (.text:ti_sysbios_knl_Swi_or__E)
                  000071a8    00000018     rfExamples_pem3.oem3 (.text:ti_sysbios_rom_cortexm_cc26xx_CC26xx_checkRevision__E)
                  000071c0    00000016     rfExamples_pem3.oem3 (.text:ti_sysbios_BIOS_exitFunc__I)
                  000071d6    00000016     NodeRadioTask.obj (.text:ti_sysbios_knl_Event_Params_init)
                  000071ec    00000016     NodeTask.obj (.text:ti_sysbios_knl_Event_Params_init)
                  00007202    00000016     EasyLink.obj (.text:ti_sysbios_knl_Semaphore_Params_init)
                  00007218    00000016     NodeRadioTask.obj (.text:ti_sysbios_knl_Semaphore_Params_init)
                  0000722e    00000016     SensorI2C.obj (.text:ti_sysbios_knl_Semaphore_Params_init)
                  00007244    00000016     NodeRadioTask.obj (.text:ti_sysbios_knl_Task_Params_init)
                  0000725a    00000016     NodeTask.obj (.text:ti_sysbios_knl_Task_Params_init)
                  00007270    00000014     NodeRadioTask.obj (.text:AONBatMonBatteryVoltageGet)
                  00007284    00000014     driverlib.lib : aon_rtc.obj (.text:NOROM_AONRTCCurrent64BitValueGet)
                  00007298    00000014                   : chipinfo.obj (.text:NOROM_ThisCodeIsBuiltForCC26xxHwRev22AndLater_HaltIfViolated)
                  000072ac    00000014     drivers_cc26xxware.aem3 : PINCC26XX.oem3 (.text:PINCC26XX_getOutputValue)
                  000072c0    00000014     rf_singleMode_cc26xxware.aem3 : RFCC26XX_singleMode.oem3 (.text:RF_Params_init)
                  000072d4    00000014     SensorI2C.obj (.text:SensorI2C_deselect)
                  000072e8    00000014     rtsv7M3_T_le_eabi.lib : _lock.obj (.text)
                  000072fc    00000014     rfExamples_pem3.oem3 (.text:ti_sysbios_knl_Clock_doTick__I)
                  00007310    00000014     rom_sysbios.aem3 : rom_sysbios.obj (.text:ti_sysbios_knl_Event_Instance_init__E)
                  00007324    00000012     rfExamples_pem3.oem3 (.text:xdc_runtime_Startup_exec__I)
                  00007336    00000002     rtsv7M3_T_le_eabi.lib : i_div0.obj (.text)
                  00007338    00000010     rf_singleMode_cc26xxware.aem3 : RFCC26XX_singleMode.oem3 (.text:FsmDispatch)
                  00007348    00000010     drivers_cc26xxware.aem3 : I2C.oem3 (.text:I2C_Params_init)
                  00007358    00000010     driverlib.lib : rfc.obj (.text:NOROM_RFCRfTrimSet)
                  00007368    00000010                   : setup_rom.obj (.text:NOROM_SetupGetTrimForXoscHfFastStart)
                  00007378    00000010                   : setup_rom.obj (.text:NOROM_SetupGetTrimForXoscHfIbiastherm)
                  00007388    00000010     smartrf_settings.obj (.text:applyGenfskPatch)
                  00007398    00000010     smartrf_settings_predefined.obj (.text:applyGenfskPatch)
                  000073a8    00000010     drivers_cc26xxware.aem3 : I2CCC26XX.oem3 (.text:i2cPostNotify)
                  000073b8    00000010     rom_sysbios.aem3 : rom_sysbios.obj (.text:ti_sysbios_family_arm_m3_Hwi_post__E)
                  000073c8    0000000e     driverlib.lib : vims.obj (.text:NOROM_VIMSModeGet)
                  000073d6    0000000e     rtsv7M3_T_le_eabi.lib : copy_decompress_none.obj (.text:decompress:none)
                  000073e4    0000000e     rom_sysbios.aem3 : rom_sysbios.obj (.text:ti_sysbios_family_arm_cc26xx_TimestampProvider_get32__E)
                  000073f2    00000002     rtsv7M3_T_le_eabi.lib : l_div0.obj (.text)
                  000073f4    0000000c     rf_singleMode_cc26xxware.aem3 : RFCC26XX_singleMode.oem3 (.text:FsmNextState)
                  00007400    0000000c     PersonlizationTask.obj (.text:IsReportTime)
                  0000740c    0000000c     driverlib.lib : cpu.obj (.text:NOROM_CPUcpsid)
                  00007418    0000000c                   : cpu.obj (.text:NOROM_CPUcpsie)
                  00007424    0000000c     drivers_cc26xxware.aem3 : PowerCC26XX.oem3 (.text:Power_getConstraintMask)
                  00007430    0000000c                             : PowerCC26XX.oem3 (.text:Power_getDependencyCount)
                  0000743c    0000000c     SensorOpt3001.obj (.text:SensorOpt3001_init)
                  00007448    0000000c     NodeRadioTask.obj (.text:TRNGDisable)
                  00007454    0000000c     NodeRadioTask.obj (.text:TRNGEnable)
                  00007460    0000000c     NodeRadioTask.obj (.text:TRNGStatusGet)
                  0000746c    0000000c     rtsv7M3_T_le_eabi.lib : copy_zero_init.obj (.text:decompress:ZI)
                  00007478    0000000c     rfExamples_pem3.oem3 (.text:ti_sysbios_knl_Event_Params__init__S)
                  00007484    0000000c     NodeRadioTask.obj (.text:ti_sysbios_knl_Event_handle)
                  00007490    0000000c     NodeTask.obj (.text:ti_sysbios_knl_Event_handle)
                  0000749c    0000000c     NodeRadioTask.obj (.text:ti_sysbios_knl_Semaphore_handle)
                  000074a8    0000000c     SensorI2C.obj (.text:ti_sysbios_knl_Semaphore_handle)
                  000074b4    0000000c     rom_sysbios.aem3 : rom_sysbios.obj (.text:ti_sysbios_knl_Swi_getTrigger__E)
                  000074c0    0000000c     rfExamples_pem3.oem3 (.text:xdc_runtime_Startup_reset__I)
                  000074cc    0000000c     rom_sysbios.aem3 : rom_sysbios.obj (.text:xdc_runtime_Startup_rtsDone__E)
                  000074d8    0000000a     drivers_cc26xxware.aem3 : I2CCC26XX.oem3 (.text:I2CCC26XX_init)
                  000074e2    0000000a                             : I2C.oem3 (.text:I2C_close)
                  000074ec    0000000a                             : I2C.oem3 (.text:I2C_transfer)
                  000074f6    0000000a                             : List.oem3 (.text:List_empty)
                  00007500    0000000a     SensorTmp007.obj (.text:SensorTmp007_init)
                  0000750a    00000008     drivers_cc26xxware.aem3 : I2CCC26XX.oem3 (.text:I2CCC26XX_blockingCallback)
                  00007512    00000008     NodeRadioTask.obj (.text:NodeRadioTask_UnixTime)
                  0000751a    00000008     smartrf_settings.obj (.text:rf_patch_cpe_genfsk)
                  00007522    00000008     smartrf_settings_predefined.obj (.text:rf_patch_cpe_genfsk)
                  0000752a    00000006     drivers_cc26xxware.aem3 : I2CCC26XX.oem3 (.text:I2CCC26XX_control)
                  00007530    00000006     driverlib.lib : cpu.obj (.text:NOROM_CPUdelay)
                  00007536    00000006     rf_singleMode_cc26xxware.aem3 : RFCC26XX_singleMode.oem3 (.text:clkInactivityFxn)
                  0000753c    00000006     rom_sysbios.aem3 : rom_sysbios.obj (.text:ti_sysbios_family_arm_m3_Hwi_setFunc__E)
                  00007542    00000004     tirtosport.aem3 : HwiP_tirtos.oem3 (.text:HwiP_disable)
                  00007546    00000004     drivers_cc26xxware.aem3 : List.oem3 (.text:List_head)
                  0000754a    00000004                             : List.oem3 (.text:List_next)
                  0000754e    00000004     rf_singleMode_cc26xxware.aem3 : RFCC26XX_singleMode.oem3 (.text:Q_peek)
                  00007552    00000004     drivers_cc26xxware.aem3 : PowerCC26XX.oem3 (.text:nopResourceHandler)
                  00007556    00000004     rom_sysbios.aem3 : rom_sysbios.obj (.text:ti_sysbios_family_arm_cc26xx_Timer_getCount64__E)
                  0000755a    00000002                      : rom_sysbios.obj (.text:ti_sysbios_BIOS_linkedWithIncorrectBootLibrary__E)
                  0000755c    00000002     rfExamples_pem3.oem3 (.text:ti_sysbios_BIOS_nullFunc__I)
                  0000755e    00000002     rom_sysbios.aem3 : rom_sysbios.obj (.text:ti_sysbios_knl_Clock_triggerFunc__I)
                  00007560    00000002     rfExamples_pem3.oem3 (.text:ti_sysbios_rom_cortexm_cc26xx_CC26xx_badRomRevision__E)
                  00007562    00000002     rom_sysbios.aem3 : rom_sysbios.obj (.text:xdc_runtime_SysCallback_defaultAbort)
                  00007564    00000002                      : rom_sysbios.obj (.text:xdc_runtime_SysCallback_defaultExit)
                  00007566    00000002     --HOLE-- [fill = 0]
                  00007568    00000008     (.tramp.xdc_runtime_Core_assignParams__I.1)
                  00007570    00000008     (.tramp.xdc_runtime_Startup_startMods__I.1)
                  00007578    00000008     (.tramp.ti_sysbios_knl_Queue_construct.1)
                  00007580    00000008     (.tramp.ti_sysbios_knl_Clock_logTick__E.1)
                  00007588    00000008     (.tramp.ti_sysbios_knl_Task_Params__init__S.1)
                  00007590    00000008     (.tramp.ti_sysbios_BIOS_RtsGateProxy_leave__E.1)
                  00007598    00000008     (.tramp.ti_sysbios_BIOS_RtsGateProxy_enter__E.1)
                  000075a0    00000008     (.tramp.xdc_runtime_Core_constructObject__I.1)
                  000075a8    00000008     (.tramp.ti_sysbios_knl_Task_startup__E.1)
                  000075b0    00000008     (.tramp.ti_sysbios_knl_Swi_startup__E.1)
                  000075b8    00000008     (.tramp.ti_sysbios_hal_Hwi_startup__E.1)
                  000075c0    00000008     (.tramp.ti_sysbios_family_arm_cc26xx_Timer_startup__E.1)
                  000075c8    00000008     (.tramp.xdc_runtime_System_atexit__E.1)
                  000075d0    00000008     (.tramp.ti_sysbios_BIOS_setThreadType__E.1)
                  000075d8    00000008     (.tramp.ti_sysbios_BIOS_start__E.1)
                  000075e0    00000008     (.tramp.xdc_runtime_System_exit__E.1)
                  000075e8    00000008     (.tramp.ti_sysbios_BIOS_getCpuFreq__E.1)
                  000075f0    00000008     (.tramp.ti_sysbios_knl_Task_unblockI__E.1)
                  000075f8    00000008     (.tramp.ti_sysbios_knl_Queue_remove__E.1)
                  00007600    00000008     (.tramp.ti_sysbios_knl_Queue_head__E.1)
                  00007608    00000008     (.tramp.ti_sysbios_knl_Queue_empty__E.1)
                  00007610    00000008     (.tramp.ti_sysbios_knl_Clock_scheduleNextTick__E.1)
                  00007618    00000008     (.tramp.ti_sysbios_knl_Clock_walkQueueDynamic__E.1)
                  00007620    00000008     (.tramp.ti_sysbios_knl_Clock_TimerProxy_getCurrentTick__E.1)
                  00007628    00000008     (.tramp.ti_sysbios_knl_Task_construct.1)
                  00007630    00000008     (.tramp.ti_sysbios_family_arm_m3_Hwi_disableInterrupt__E.1)
                  00007638    00000008     (.tramp.ti_sysbios_family_arm_m3_Hwi_enableInterrupt__E.1)
                  00007640    00000008     (.tramp.ti_sysbios_knl_Clock_removeI__E.1)
                  00007648    00000008     (.tramp.ti_sysbios_knl_Clock_startI__E.1)
                  00007650    00000008     (.tramp.ti_sysbios_knl_Task_blockI__E.1)
                  00007658    00000008     (.tramp.ti_sysbios_knl_Queue_enqueue__E.1)
                  00007660    00000008     (.tramp.ti_sysbios_knl_Task_self__E.1)
                  00007668    00000008     (.tramp.ti_sysbios_knl_Clock_addI__E.1)
                  00007670    00000008     (.tramp.ti_sysbios_knl_Swi_post__E.1)
                  00007678    00000008     (.tramp.ti_sysbios_family_arm_m3_Hwi_destruct.1)
                  00007680    00000008     (.tramp.ti_sysbios_knl_Swi_destruct.1)
                  00007688    00000008     (.tramp.ti_sysbios_knl_Clock_destruct.1)
                  00007690    00000008     (.tramp.ti_sysbios_knl_Semaphore_destruct.1)
                  00007698    00000008     (.tramp.ti_sysbios_knl_Clock_Params__init__S.1)
                  000076a0    00000008     (.tramp.ti_sysbios_knl_Clock_construct.1)
                  000076a8    00000008     (.tramp.ti_sysbios_knl_Task_sleep__E.1)
                  000076b0    00000008     (.tramp.xdc_runtime_System_abortSpin__E.1)
                  000076b8    00000008     (.tramp.ti_sysbios_knl_Swi_construct.1)
                  000076c0    00000008     (.tramp.ti_sysbios_knl_Swi_Params__init__S.1)
                  000076c8    00000008     (.tramp.ti_sysbios_family_arm_m3_Hwi_construct.1)
                  000076d0    00000008     (.tramp.ti_sysbios_family_arm_m3_Hwi_Params__init__S.1)
                  000076d8    00000008     (.tramp.ti_sysbios_knl_Semaphore_construct.1)
                  000076e0    00000008     (.tramp.ti_sysbios_knl_Semaphore_Params__init__S.1)
                  000076e8    00000008     (.tramp.ti_sysbios_knl_Clock_getTicks__E.1)
                  000076f0    00000008     (.tramp.xdc_runtime_System_abort__E.1)
                  000076f8    00000008     (.tramp.ti_sysbios_knl_Task_restore__E.1)
                  00007700    00000008     (.tramp.ti_sysbios_knl_Swi_restore__E.1)
                  00007708    00000008     (.tramp.ti_sysbios_knl_Swi_disable__E.1)
                  00007710    00000008     (.tramp.ti_sysbios_knl_Task_disable__E.1)
                  00007718    00000008     (.tramp.ti_sysbios_knl_Semaphore_create.1)
                  00007720    00000008     (.tramp.xdc_runtime_Error_init__E.1)
                  00007728    00000008     (.tramp.ti_sysbios_knl_Semaphore_post__E.1)
                  00007730    00000008     (.tramp.ti_sysbios_knl_Semaphore_pend__E.1)
                  00007738    00000008     (.tramp.ti_sysbios_knl_Clock_start__E.1)
                  00007740    00000008     (.tramp.ti_sysbios_knl_Clock_setTimeout__E.1)
                  00007748    00000008     (.tramp.ti_sysbios_family_arm_m3_Hwi_restoreFxn__E.1)
                  00007750    00000008     (.tramp.ti_sysbios_family_arm_m3_Hwi_disableFxn__E.1)

.const     0    00007758    000020a8     
                  00007758    00000730     smartrf_settings.obj (.const:patchGenfskMce)
                  00007e88    00000730     smartrf_settings_predefined.obj (.const:patchGenfskMce)
                  000085b8    000006bc     smartrf_settings.obj (.const:patchGenfskRfe)
                  00008c74    000006bc     smartrf_settings_predefined.obj (.const:patchGenfskRfe)
                  00009330    00000118     smartrf_settings.obj (.const:patchImageGenfsk)
                  00009448    00000118     smartrf_settings_predefined.obj (.const:patchImageGenfsk)
                  00009560    00000068     CC2650STK.obj (.const:BoardGpioInitTable)
                  000095c8    00000060     rtsv7M3_T_le_eabi.lib : mktime.obj (.const:$O1$$)
                  00009628    0000004c     drivers_cc26xxware.aem3 : PowerCC26XX.oem3 (.const:resourceDB)
                  00009674    00000048     rfExamples_pem3.oem3 (.const:.string)
                  000096bc    00000030     CC2650STK.obj (.const:i2cCC26xxHWAttrs)
                  000096ec    00000024     CC2650STK.obj (.const:I2C_config)
                  00009710    00000024     rfExamples_pem3.oem3 (.const:xdc_runtime_Startup_sfxnTab__A)
                  00009734    00000020     drivers_cc26xxware.aem3 : I2CCC26XX.oem3 (.const)
                  00009754    00000020     rfExamples_pem3.oem3 (.const:ti_sysbios_knl_Event_Object__DESC__C)
                  00009774    00000018     rfExamples_pem3.oem3 (.const:ti_sysbios_knl_Event_Object__PARAMS__C)
                  0000978c    00000014     rf_singleMode_cc26xxware.aem3 : RFCC26XX_singleMode.oem3 (.const)
                  000097a0    00000012     rfExamples_pem3.oem3 (.const:xdc_runtime_Startup_sfxnRts__A)
                  000097b2    00000001     rfExamples_pem3.oem3 (.const:xdc_runtime_Text_charTab__A)
                  000097b3    00000001     --HOLE-- [fill = 0]
                  000097b4    00000010     CC2650STK.obj (.const:PowerCC26XX_config)
                  000097c4    00000010     drivers_cc26xxware.aem3 : I2C.oem3 (.const)
                  000097d4    0000000c     rfExamples_pem3.oem3 (.const:xdc_runtime_Startup_firstFxns__A)
                  000097e0    00000008     CC2650STK.obj (.const:PINCC26XX_hwAttrs)
                  000097e8    00000004     CC2650STK.obj (.const:RFCC26XX_hwAttrs)
                  000097ec    00000004     SensorI2C.obj (.const:pinCfg)
                  000097f0    00000004     rfExamples_pem3.oem3 (.const:ti_sysbios_knl_Clock_tickPeriod__C)
                  000097f4    00000004     rfExamples_pem3.oem3 (.const:ti_sysbios_knl_Clock_triggerClock__C)
                  000097f8    00000004     rfExamples_pem3.oem3 (.const:ti_sysbios_knl_Event_Instance_State_pendQ__O)
                  000097fc    00000004     rfExamples_pem3.oem3 (.const:ti_sysbios_knl_Idle_funcList__A)

.cinit     0    00009800    00000388     
                  00009800    0000024e     (.cinit..data.load) [load image, compression = lzss]
                  00009a4e    00000028     (.cinit..data:ti_sysbios_family_arm_m3_Hwi_Module__state__V.load) [load image, compression = lzss]
                  00009a76    00000021     (.cinit..data:ti_sysbios_knl_Task_Module__state__V.load) [load image, compression = lzss]
                  00009a97    0000001f     (.cinit..data:ti_sysbios_BIOS_Module__state__V.load) [load image, compression = lzss]
                  00009ab6    0000001e     (.cinit..data:ti_sysbios_knl_Clock_Module__state__V.load) [load image, compression = lzss]
                  00009ad4    00000010     (.cinit..data:ti_sysbios_knl_Swi_Module__state__V.load) [load image, compression = lzss]
                  00009ae4    0000000c     (__TI_handler_table)
                  00009af0    0000000b     (.cinit..data:ti_sysbios_family_arm_cc26xx_Timer_Module__state__V.load) [load image, compression = lzss]
                  00009afb    00000005     --HOLE-- [fill = 0]
                  00009b00    00000008     (.cinit..bss.load) [load image, compression = zero_init]
                  00009b08    00000008     (.cinit..data:xdc_runtime_Memory_Module__state__V.load) [load image, compression = lzss]
                  00009b10    00000007     (.cinit..data:ti_sysbios_family_arm_cc26xx_TimestampProvider_Module__state__V.load) [load image, compression = lzss]
                  00009b17    00000007     (.cinit..data:xdc_runtime_Startup_Module__state__V.load) [load image, compression = lzss]
                  00009b1e    00000007     (.cinit..data:xdc_runtime_System_Module__state__V.load) [load image, compression = lzss]
                  00009b25    00000003     --HOLE-- [fill = 0]
                  00009b28    00000060     (__TI_cinit_table)

.init_array 
*          0    00000000    00000000     UNINITIALIZED

.ccfg      0    0001ffa8    00000058     
                  0001ffa8    00000058     ccfg.obj (.ccfg:retain)

.resetVecs 
*          0    00000000    0000003c     
                  00000000    0000003c     rfExamples_pem3.oem3 (.resetVecs)

.binit     0    00000000    00000000     

.const:ti_sysbios_knl_Task_Object__PARAMS__C 
*          0    00000100    0000003c     
                  00000100    0000003c     rfExamples_pem3.oem3 (.const:ti_sysbios_knl_Task_Object__PARAMS__C)

.const:ti_sysbios_knl_Mailbox_Object__PARAMS__C 
*          0    0000013c    00000034     
                  0000013c    00000034     rfExamples_pem3.oem3 (.const:ti_sysbios_knl_Mailbox_Object__PARAMS__C)

.const:ti_sysbios_family_arm_m3_Hwi_Object__PARAMS__C 
*          0    00000170    00000030     
                  00000170    00000030     rfExamples_pem3.oem3 (.const:ti_sysbios_family_arm_m3_Hwi_Object__PARAMS__C)

.const:ti_sysbios_hal_Hwi_Object__PARAMS__C 
*          0    000001a0    0000002c     
                  000001a0    0000002c     rfExamples_pem3.oem3 (.const:ti_sysbios_hal_Hwi_Object__PARAMS__C)

.const:ti_sysbios_heaps_HeapMem_Module__FXNS__C 
*          0    000001cc    00000028     
                  000001cc    00000028     rfExamples_pem3.oem3 (.const:ti_sysbios_heaps_HeapMem_Module__FXNS__C)

.const:ti_sysbios_knl_Swi_Object__PARAMS__C 
*          0    000001f4    00000028     
                  000001f4    00000028     rfExamples_pem3.oem3 (.const:ti_sysbios_knl_Swi_Object__PARAMS__C)

.const:ti_sysbios_gates_GateHwi_Module__FXNS__C 
*          0    0000021c    00000024     
                  0000021c    00000024     rfExamples_pem3.oem3 (.const:ti_sysbios_gates_GateHwi_Module__FXNS__C)

.const:ti_sysbios_gates_GateMutex_Module__FXNS__C 
*          0    00000240    00000024     
                  00000240    00000024     rfExamples_pem3.oem3 (.const:ti_sysbios_gates_GateMutex_Module__FXNS__C)

.const:ti_sysbios_heaps_HeapMem_Object__PARAMS__C 
*          0    00000264    00000024     
                  00000264    00000024     rfExamples_pem3.oem3 (.const:ti_sysbios_heaps_HeapMem_Object__PARAMS__C)

.const:ti_sysbios_knl_Clock_Object__PARAMS__C 
*          0    00000288    00000024     
                  00000288    00000024     rfExamples_pem3.oem3 (.const:ti_sysbios_knl_Clock_Object__PARAMS__C)

.const:ti_sysbios_knl_Semaphore_Object__PARAMS__C 
*          0    000002ac    00000024     
                  000002ac    00000024     rfExamples_pem3.oem3 (.const:ti_sysbios_knl_Semaphore_Object__PARAMS__C)

.const:ti_sysbios_family_arm_m3_Hwi_Object__DESC__C 
*          0    000002d0    00000020     
                  000002d0    00000020     rfExamples_pem3.oem3 (.const:ti_sysbios_family_arm_m3_Hwi_Object__DESC__C)

.const:ti_sysbios_gates_GateHwi_Object__DESC__C 
*          0    000002f0    00000020     
                  000002f0    00000020     rfExamples_pem3.oem3 (.const:ti_sysbios_gates_GateHwi_Object__DESC__C)

.const:ti_sysbios_gates_GateMutex_Object__DESC__C 
*          0    00000310    00000020     
                  00000310    00000020     rfExamples_pem3.oem3 (.const:ti_sysbios_gates_GateMutex_Object__DESC__C)

.const:ti_sysbios_hal_Hwi_Object__DESC__C 
*          0    00000330    00000020     
                  00000330    00000020     rfExamples_pem3.oem3 (.const:ti_sysbios_hal_Hwi_Object__DESC__C)

.const:ti_sysbios_heaps_HeapMem_Object__DESC__C 
*          0    00000350    00000020     
                  00000350    00000020     rfExamples_pem3.oem3 (.const:ti_sysbios_heaps_HeapMem_Object__DESC__C)

.const:ti_sysbios_knl_Clock_Object__DESC__C 
*          0    00000370    00000020     
                  00000370    00000020     rfExamples_pem3.oem3 (.const:ti_sysbios_knl_Clock_Object__DESC__C)

.const:ti_sysbios_knl_Mailbox_Object__DESC__C 
*          0    00000390    00000020     
                  00000390    00000020     rfExamples_pem3.oem3 (.const:ti_sysbios_knl_Mailbox_Object__DESC__C)

.const:ti_sysbios_knl_Queue_Object__DESC__C 
*          0    000003b0    00000020     
                  000003b0    00000020     rfExamples_pem3.oem3 (.const:ti_sysbios_knl_Queue_Object__DESC__C)

.const:ti_sysbios_knl_Semaphore_Object__DESC__C 
*          0    000003d0    00000020     
                  000003d0    00000020     rfExamples_pem3.oem3 (.const:ti_sysbios_knl_Semaphore_Object__DESC__C)

.const:ti_sysbios_knl_Swi_Object__DESC__C 
*          0    000003f0    00000020     
                  000003f0    00000020     rfExamples_pem3.oem3 (.const:ti_sysbios_knl_Swi_Object__DESC__C)

.const:ti_sysbios_knl_Task_Object__DESC__C 
*          0    00000410    00000020     
                  00000410    00000020     rfExamples_pem3.oem3 (.const:ti_sysbios_knl_Task_Object__DESC__C)

.const:ti_sysbios_gates_GateHwi_Object__PARAMS__C 
*          0    00000430    00000018     
                  00000430    00000018     rfExamples_pem3.oem3 (.const:ti_sysbios_gates_GateHwi_Object__PARAMS__C)

.const:ti_sysbios_gates_GateMutex_Object__PARAMS__C 
*          0    00000448    00000018     
                  00000448    00000018     rfExamples_pem3.oem3 (.const:ti_sysbios_gates_GateMutex_Object__PARAMS__C)

.const:ti_sysbios_knl_Queue_Object__PARAMS__C 
*          0    00000460    00000018     
                  00000460    00000018     rfExamples_pem3.oem3 (.const:ti_sysbios_knl_Queue_Object__PARAMS__C)

.const:ti_sysbios_knl_Idle_funcList__C 
*          0    00000478    00000008     
                  00000478    00000008     rfExamples_pem3.oem3 (.const:ti_sysbios_knl_Idle_funcList__C)

.const:ti_sysbios_family_arm_cc26xx_Timer_startupNeeded__C 
*          0    00000484    00000004     
                  00000484    00000004     rfExamples_pem3.oem3 (.const:ti_sysbios_family_arm_cc26xx_Timer_startupNeeded__C)

.const:ti_sysbios_family_arm_m3_Hwi_E_alreadyDefined__C 
*          0    00000488    00000004     
                  00000488    00000004     rfExamples_pem3.oem3 (.const:ti_sysbios_family_arm_m3_Hwi_E_alreadyDefined__C)

.const:ti_sysbios_family_arm_m3_Hwi_E_hwiLimitExceeded__C 
*          0    0000048c    00000004     
                  0000048c    00000004     rfExamples_pem3.oem3 (.const:ti_sysbios_family_arm_m3_Hwi_E_hwiLimitExceeded__C)

.const:ti_sysbios_family_arm_m3_Hwi_NUM_INTERRUPTS__C 
*          0    00000490    00000004     
                  00000490    00000004     rfExamples_pem3.oem3 (.const:ti_sysbios_family_arm_m3_Hwi_NUM_INTERRUPTS__C)

.const:ti_sysbios_family_arm_m3_Hwi_Object__count__C 
*          0    00000494    00000004     
                  00000494    00000004     rfExamples_pem3.oem3 (.const:ti_sysbios_family_arm_m3_Hwi_Object__count__C)

.const:ti_sysbios_family_arm_m3_Hwi_Object__table__C 
*          0    00000498    00000004     
                  00000498    00000004     rfExamples_pem3.oem3 (.const:ti_sysbios_family_arm_m3_Hwi_Object__table__C)

.const:ti_sysbios_family_arm_m3_Hwi_ccr__C 
*          0    0000049c    00000004     
                  0000049c    00000004     rfExamples_pem3.oem3 (.const:ti_sysbios_family_arm_m3_Hwi_ccr__C)

.const:ti_sysbios_family_arm_m3_Hwi_excHandlerFunc__C 
*          0    000004a0    00000004     
                  000004a0    00000004     rfExamples_pem3.oem3 (.const:ti_sysbios_family_arm_m3_Hwi_excHandlerFunc__C)

.const:ti_sysbios_family_arm_m3_Hwi_nullIsrFunc__C 
*          0    000004a4    00000004     
                  000004a4    00000004     rfExamples_pem3.oem3 (.const:ti_sysbios_family_arm_m3_Hwi_nullIsrFunc__C)

.const:ti_sysbios_family_arm_m3_Hwi_numSparseInterrupts__C 
*          0    000004a8    00000004     
                  000004a8    00000004     rfExamples_pem3.oem3 (.const:ti_sysbios_family_arm_m3_Hwi_numSparseInterrupts__C)

.const:ti_sysbios_family_arm_m3_Hwi_priGroup__C 
*          0    000004ac    00000004     
                  000004ac    00000004     rfExamples_pem3.oem3 (.const:ti_sysbios_family_arm_m3_Hwi_priGroup__C)

.const:ti_sysbios_family_arm_m3_TaskSupport_stackAlignment__C 
*          0    000004b0    00000004     
                  000004b0    00000004     rfExamples_pem3.oem3 (.const:ti_sysbios_family_arm_m3_TaskSupport_stackAlignment__C)

.const:ti_sysbios_heaps_HeapMem_E_memory__C 
*          0    000004b4    00000004     
                  000004b4    00000004     rfExamples_pem3.oem3 (.const:ti_sysbios_heaps_HeapMem_E_memory__C)

.const:ti_sysbios_heaps_HeapMem_Module__gateObj__C 
*          0    000004b8    00000004     
                  000004b8    00000004     rfExamples_pem3.oem3 (.const:ti_sysbios_heaps_HeapMem_Module__gateObj__C)

.const:ti_sysbios_heaps_HeapMem_Object__count__C 
*          0    000004bc    00000004     
                  000004bc    00000004     rfExamples_pem3.oem3 (.const:ti_sysbios_heaps_HeapMem_Object__count__C)

.const:ti_sysbios_heaps_HeapMem_Object__table__C 
*          0    000004c0    00000004     
                  000004c0    00000004     rfExamples_pem3.oem3 (.const:ti_sysbios_heaps_HeapMem_Object__table__C)

.const:ti_sysbios_heaps_HeapMem_reqAlign__C 
*          0    000004c4    00000004     
                  000004c4    00000004     rfExamples_pem3.oem3 (.const:ti_sysbios_heaps_HeapMem_reqAlign__C)

.const:ti_sysbios_knl_Clock_serviceMargin__C 
*          0    000004c8    00000004     
                  000004c8    00000004     rfExamples_pem3.oem3 (.const:ti_sysbios_knl_Clock_serviceMargin__C)

.const:ti_sysbios_knl_Mailbox_Object__count__C 
*          0    000004cc    00000004     
                  000004cc    00000004     rfExamples_pem3.oem3 (.const:ti_sysbios_knl_Mailbox_Object__count__C)

.const:ti_sysbios_knl_Mailbox_Object__table__C 
*          0    000004d0    00000004     
                  000004d0    00000004     rfExamples_pem3.oem3 (.const:ti_sysbios_knl_Mailbox_Object__table__C)

.const:ti_sysbios_knl_Queue_Object__count__C 
*          0    000004d4    00000004     
                  000004d4    00000004     rfExamples_pem3.oem3 (.const:ti_sysbios_knl_Queue_Object__count__C)

.const:ti_sysbios_knl_Queue_Object__table__C 
*          0    000004d8    00000004     
                  000004d8    00000004     rfExamples_pem3.oem3 (.const:ti_sysbios_knl_Queue_Object__table__C)

.const:ti_sysbios_knl_Swi_Object__count__C 
*          0    000004dc    00000004     
                  000004dc    00000004     rfExamples_pem3.oem3 (.const:ti_sysbios_knl_Swi_Object__count__C)

.const:ti_sysbios_knl_Swi_Object__table__C 
*          0    000004e0    00000004     
                  000004e0    00000004     rfExamples_pem3.oem3 (.const:ti_sysbios_knl_Swi_Object__table__C)

.const:ti_sysbios_knl_Swi_numPriorities__C 
*          0    000004e4    00000004     
                  000004e4    00000004     rfExamples_pem3.oem3 (.const:ti_sysbios_knl_Swi_numPriorities__C)

.const:ti_sysbios_knl_Task_Object__count__C 
*          0    000004e8    00000004     
                  000004e8    00000004     rfExamples_pem3.oem3 (.const:ti_sysbios_knl_Task_Object__count__C)

.const:ti_sysbios_knl_Task_Object__table__C 
*          0    000004ec    00000004     
                  000004ec    00000004     rfExamples_pem3.oem3 (.const:ti_sysbios_knl_Task_Object__table__C)

.const:ti_sysbios_knl_Task_allBlockedFunc__C 
*          0    000004f0    00000004     
                  000004f0    00000004     rfExamples_pem3.oem3 (.const:ti_sysbios_knl_Task_allBlockedFunc__C)

.const:ti_sysbios_knl_Task_defaultStackHeap__C 
*          0    000004f4    00000004     
                  000004f4    00000004     rfExamples_pem3.oem3 (.const:ti_sysbios_knl_Task_defaultStackHeap__C)

.const:ti_sysbios_knl_Task_defaultStackSize__C 
*          0    000004f8    00000004     
                  000004f8    00000004     rfExamples_pem3.oem3 (.const:ti_sysbios_knl_Task_defaultStackSize__C)

.const:ti_sysbios_knl_Task_numConstructedTasks__C 
*          0    000004fc    00000004     
                  000004fc    00000004     rfExamples_pem3.oem3 (.const:ti_sysbios_knl_Task_numConstructedTasks__C)

.const:ti_sysbios_family_arm_cc26xx_Timer_Module__id__C 
*          0    00000502    00000002     
                  00000502    00000002     rfExamples_pem3.oem3 (.const:ti_sysbios_family_arm_cc26xx_Timer_Module__id__C)

.const:ti_sysbios_family_arm_cc26xx_TimestampProvider_useClockTimer__C 
*          0    00000504    00000002     
                  00000504    00000002     rfExamples_pem3.oem3 (.const:ti_sysbios_family_arm_cc26xx_TimestampProvider_useClockTimer__C)

.const:ti_sysbios_family_arm_m3_Hwi_Module__id__C 
*          0    00000506    00000002     
                  00000506    00000002     rfExamples_pem3.oem3 (.const:ti_sysbios_family_arm_m3_Hwi_Module__id__C)

.const:ti_sysbios_gates_GateHwi_Module__id__C 
*          0    00000508    00000002     
                  00000508    00000002     rfExamples_pem3.oem3 (.const:ti_sysbios_gates_GateHwi_Module__id__C)

.const:ti_sysbios_gates_GateMutex_Module__id__C 
*          0    0000050a    00000002     
                  0000050a    00000002     rfExamples_pem3.oem3 (.const:ti_sysbios_gates_GateMutex_Module__id__C)

.const:ti_sysbios_heaps_HeapMem_Module__id__C 
*          0    0000050c    00000002     
                  0000050c    00000002     rfExamples_pem3.oem3 (.const:ti_sysbios_heaps_HeapMem_Module__id__C)

.const:ti_sysbios_knl_Task_initStackFlag__C 
*          0    0000050e    00000002     
                  0000050e    00000002     rfExamples_pem3.oem3 (.const:ti_sysbios_knl_Task_initStackFlag__C)

.const:ti_sysbios_knl_Clock_tickMode__C 
*          0    00000510    00000001     
                  00000510    00000001     rfExamples_pem3.oem3 (.const:ti_sysbios_knl_Clock_tickMode__C)

.const:xdc_runtime_Startup_firstFxns__C 
*          0    00000514    00000008     
                  00000514    00000008     rfExamples_pem3.oem3 (.const:xdc_runtime_Startup_firstFxns__C)

.const:xdc_runtime_Startup_lastFxns__C 
*          0    0000051c    00000008     
                  0000051c    00000008     rfExamples_pem3.oem3 (.const:xdc_runtime_Startup_lastFxns__C)

.const:xdc_runtime_Assert_E_assertFailed__C 
*          0    00000524    00000004     
                  00000524    00000004     rfExamples_pem3.oem3 (.const:xdc_runtime_Assert_E_assertFailed__C)

.const:xdc_runtime_Error_E_memory__C 
*          0    00000528    00000004     
                  00000528    00000004     rfExamples_pem3.oem3 (.const:xdc_runtime_Error_E_memory__C)

.const:xdc_runtime_Error_policyFxn__C 
*          0    0000052c    00000004     
                  0000052c    00000004     rfExamples_pem3.oem3 (.const:xdc_runtime_Error_policyFxn__C)

.const:xdc_runtime_IGateProvider_Interface__BASE__C 
*          0    00000530    00000004     
                  00000530    00000004     rfExamples_pem3.oem3 (.const:xdc_runtime_IGateProvider_Interface__BASE__C)

.const:xdc_runtime_IHeap_Interface__BASE__C 
*          0    00000534    00000004     
                  00000534    00000004     rfExamples_pem3.oem3 (.const:xdc_runtime_IHeap_Interface__BASE__C)

.const:xdc_runtime_IModule_Interface__BASE__C 
*          0    00000538    00000004     
                  00000538    00000004     rfExamples_pem3.oem3 (.const:xdc_runtime_IModule_Interface__BASE__C)

.const:xdc_runtime_Main_Module__diagsEnabled__C 
*          0    0000053c    00000004     
                  0000053c    00000004     rfExamples_pem3.oem3 (.const:xdc_runtime_Main_Module__diagsEnabled__C)

.const:xdc_runtime_Main_Module__diagsIncluded__C 
*          0    00000540    00000004     
                  00000540    00000004     rfExamples_pem3.oem3 (.const:xdc_runtime_Main_Module__diagsIncluded__C)

.const:xdc_runtime_Main_Module__diagsMask__C 
*          0    00000544    00000004     
                  00000544    00000004     rfExamples_pem3.oem3 (.const:xdc_runtime_Main_Module__diagsMask__C)

.const:xdc_runtime_Memory_defaultHeapInstance__C 
*          0    00000548    00000004     
                  00000548    00000004     rfExamples_pem3.oem3 (.const:xdc_runtime_Memory_defaultHeapInstance__C)

.const:xdc_runtime_Startup_execImpl__C 
*          0    0000054c    00000004     
                  0000054c    00000004     rfExamples_pem3.oem3 (.const:xdc_runtime_Startup_execImpl__C)

.const:xdc_runtime_Startup_maxPasses__C 
*          0    00000550    00000004     
                  00000550    00000004     rfExamples_pem3.oem3 (.const:xdc_runtime_Startup_maxPasses__C)

.const:xdc_runtime_Startup_sfxnRts__C 
*          0    00000554    00000004     
                  00000554    00000004     rfExamples_pem3.oem3 (.const:xdc_runtime_Startup_sfxnRts__C)

.const:xdc_runtime_Startup_sfxnTab__C 
*          0    00000558    00000004     
                  00000558    00000004     rfExamples_pem3.oem3 (.const:xdc_runtime_Startup_sfxnTab__C)

.const:xdc_runtime_Startup_startModsFxn__C 
*          0    0000055c    00000004     
                  0000055c    00000004     rfExamples_pem3.oem3 (.const:xdc_runtime_Startup_startModsFxn__C)

.const:xdc_runtime_SysCallback_abortFxn__C 
*          0    00000560    00000004     
                  00000560    00000004     rfExamples_pem3.oem3 (.const:xdc_runtime_SysCallback_abortFxn__C)

.const:xdc_runtime_SysCallback_exitFxn__C 
*          0    00000564    00000004     
                  00000564    00000004     rfExamples_pem3.oem3 (.const:xdc_runtime_SysCallback_exitFxn__C)

.const:xdc_runtime_System_abortFxn__C 
*          0    00000568    00000004     
                  00000568    00000004     rfExamples_pem3.oem3 (.const:xdc_runtime_System_abortFxn__C)

.const:xdc_runtime_System_exitFxn__C 
*          0    0000056c    00000004     
                  0000056c    00000004     rfExamples_pem3.oem3 (.const:xdc_runtime_System_exitFxn__C)

.const:xdc_runtime_System_maxAtexitHandlers__C 
*          0    00000570    00000004     
                  00000570    00000004     rfExamples_pem3.oem3 (.const:xdc_runtime_System_maxAtexitHandlers__C)

.const:xdc_runtime_Text_charTab__C 
*          0    00000574    00000004     
                  00000574    00000004     rfExamples_pem3.oem3 (.const:xdc_runtime_Text_charTab__C)

.const:xdc_runtime_Text_nameEmpty__C 
*          0    00000578    00000004     
                  00000578    00000004     rfExamples_pem3.oem3 (.const:xdc_runtime_Text_nameEmpty__C)

.const:xdc_runtime_Text_nameStatic__C 
*          0    0000057c    00000004     
                  0000057c    00000004     rfExamples_pem3.oem3 (.const:xdc_runtime_Text_nameStatic__C)

.const:xdc_runtime_Text_nameUnknown__C 
*          0    00000580    00000004     
                  00000580    00000004     rfExamples_pem3.oem3 (.const:xdc_runtime_Text_nameUnknown__C)

.const:xdc_runtime_Main_Module__id__C 
*          0    00000584    00000002     
                  00000584    00000002     rfExamples_pem3.oem3 (.const:xdc_runtime_Main_Module__id__C)

.const:xdc_runtime_Memory_Module__id__C 
*          0    00000586    00000002     
                  00000586    00000002     rfExamples_pem3.oem3 (.const:xdc_runtime_Memory_Module__id__C)

.const:xdc_runtime_Text_charCnt__C 
*          0    00000588    00000002     
                  00000588    00000002     rfExamples_pem3.oem3 (.const:xdc_runtime_Text_charCnt__C)

.const:xdc_runtime_Text_isLoaded__C 
*          0    0000058a    00000002     
                  0000058a    00000002     rfExamples_pem3.oem3 (.const:xdc_runtime_Text_isLoaded__C)

.const:xdc_runtime_Error_policy__C 
*          0    0000058c    00000001     
                  0000058c    00000001     rfExamples_pem3.oem3 (.const:xdc_runtime_Error_policy__C)

.const:ti_sysbios_rom_ROM_AONRTCChannelEnable 
*          0    00000590    00000004     
                  00000590    00000004     rfExamples_pem3.oem3 (.const:ti_sysbios_rom_ROM_AONRTCChannelEnable)

.const:ti_sysbios_rom_ROM_AONRTCCompareValueSet 
*          0    00000594    00000004     
                  00000594    00000004     rfExamples_pem3.oem3 (.const:ti_sysbios_rom_ROM_AONRTCCompareValueSet)

.const:ti_sysbios_rom_ROM_AONRTCCurrentCompareValueGet 
*          0    00000598    00000004     
                  00000598    00000004     rfExamples_pem3.oem3 (.const:ti_sysbios_rom_ROM_AONRTCCurrentCompareValueGet)

.const:ti_sysbios_rom_ROM_AONRTCEventClear 
*          0    0000059c    00000004     
                  0000059c    00000004     rfExamples_pem3.oem3 (.const:ti_sysbios_rom_ROM_AONRTCEventClear)

.const:ti_sysbios_rom_ROM_ti_sysbios_family_arm_cc26xx_Timer_getCount64__E 
*          0    000005a0    00000004     
                  000005a0    00000004     rfExamples_pem3.oem3 (.const:ti_sysbios_rom_ROM_ti_sysbios_family_arm_cc26xx_Timer_getCount64__E)

.const:ti_sysbios_rom_ROM_ti_sysbios_family_arm_cc26xx_Timer_getCurrentTick__E 
*          0    000005a4    00000004     
                  000005a4    00000004     rfExamples_pem3.oem3 (.const:ti_sysbios_rom_ROM_ti_sysbios_family_arm_cc26xx_Timer_getCurrentTick__E)

.const:ti_sysbios_rom_ROM_ti_sysbios_family_arm_cc26xx_Timer_getMaxTicks__E 
*          0    000005a8    00000004     
                  000005a8    00000004     rfExamples_pem3.oem3 (.const:ti_sysbios_rom_ROM_ti_sysbios_family_arm_cc26xx_Timer_getMaxTicks__E)

.const:ti_sysbios_rom_ROM_ti_sysbios_family_arm_cc26xx_Timer_initDevice__I 
*          0    000005ac    00000004     
                  000005ac    00000004     rfExamples_pem3.oem3 (.const:ti_sysbios_rom_ROM_ti_sysbios_family_arm_cc26xx_Timer_initDevice__I)

.const:ti_sysbios_rom_ROM_ti_sysbios_family_arm_cc26xx_Timer_setNextTick__E 
*          0    000005b0    00000004     
                  000005b0    00000004     rfExamples_pem3.oem3 (.const:ti_sysbios_rom_ROM_ti_sysbios_family_arm_cc26xx_Timer_setNextTick__E)

.const:ti_sysbios_rom_ROM_ti_sysbios_family_arm_cc26xx_Timer_setThreshold__I 
*          0    000005b4    00000004     
                  000005b4    00000004     rfExamples_pem3.oem3 (.const:ti_sysbios_rom_ROM_ti_sysbios_family_arm_cc26xx_Timer_setThreshold__I)

.const:ti_sysbios_rom_ROM_ti_sysbios_family_arm_cc26xx_Timer_start__E 
*          0    000005b8    00000004     
                  000005b8    00000004     rfExamples_pem3.oem3 (.const:ti_sysbios_rom_ROM_ti_sysbios_family_arm_cc26xx_Timer_start__E)

.const:ti_sysbios_rom_ROM_ti_sysbios_family_arm_cc26xx_TimestampProvider_get32__E 
*          0    000005bc    00000004     
                  000005bc    00000004     rfExamples_pem3.oem3 (.const:ti_sysbios_rom_ROM_ti_sysbios_family_arm_cc26xx_TimestampProvider_get32__E)

.const:ti_sysbios_rom_ROM_xdc_runtime_Startup_getState__I 
*          0    000005c0    00000004     
                  000005c0    00000004     rfExamples_pem3.oem3 (.const:ti_sysbios_rom_ROM_xdc_runtime_Startup_getState__I)

.const:ti_sysbios_rom_ROM_xdc_runtime_System_SupportProxy_abort__E 
*          0    000005c4    00000004     
                  000005c4    00000004     rfExamples_pem3.oem3 (.const:ti_sysbios_rom_ROM_xdc_runtime_System_SupportProxy_abort__E)

.const:ti_sysbios_rom_ROM_xdc_runtime_System_SupportProxy_exit__E 
*          0    000005c8    00000004     
                  000005c8    00000004     rfExamples_pem3.oem3 (.const:ti_sysbios_rom_ROM_xdc_runtime_System_SupportProxy_exit__E)

.const:ti_sysbios_gates_GateMutex_Instance_State_sem__O 
*          0    000005cc    00000004     
                  000005cc    00000004     rfExamples_pem3.oem3 (.const:ti_sysbios_gates_GateMutex_Instance_State_sem__O)

.const:ti_sysbios_knl_Clock_Module_State_clockQ__O 
*          0    000005d0    00000004     
                  000005d0    00000004     rfExamples_pem3.oem3 (.const:ti_sysbios_knl_Clock_Module_State_clockQ__O)

.const:ti_sysbios_knl_Mailbox_Instance_State_dataQue__O 
*          0    000005d4    00000004     
                  000005d4    00000004     rfExamples_pem3.oem3 (.const:ti_sysbios_knl_Mailbox_Instance_State_dataQue__O)

.const:ti_sysbios_knl_Mailbox_Instance_State_dataSem__O 
*          0    000005d8    00000004     
                  000005d8    00000004     rfExamples_pem3.oem3 (.const:ti_sysbios_knl_Mailbox_Instance_State_dataSem__O)

.const:ti_sysbios_knl_Mailbox_Instance_State_freeQue__O 
*          0    000005dc    00000004     
                  000005dc    00000004     rfExamples_pem3.oem3 (.const:ti_sysbios_knl_Mailbox_Instance_State_freeQue__O)

.const:ti_sysbios_knl_Mailbox_Instance_State_freeSem__O 
*          0    000005e0    00000004     
                  000005e0    00000004     rfExamples_pem3.oem3 (.const:ti_sysbios_knl_Mailbox_Instance_State_freeSem__O)

.const:ti_sysbios_knl_Semaphore_Instance_State_pendQ__O 
*          0    000005e4    00000004     
                  000005e4    00000004     rfExamples_pem3.oem3 (.const:ti_sysbios_knl_Semaphore_Instance_State_pendQ__O)

.const:ti_sysbios_knl_Task_Module_State_inactiveQ__O 
*          0    000005e8    00000004     
                  000005e8    00000004     rfExamples_pem3.oem3 (.const:ti_sysbios_knl_Task_Module_State_inactiveQ__O)

.vecs      0    20000000    000000c8     NOLOAD SECTION
                  20000000    000000c8     rfExamples_pem3.oem3 (.vecs)

.data:ti_sysbios_knl_Task_Module__state__V 
*          0    20000100    00000044     UNINITIALIZED
                  20000100    00000044     rfExamples_pem3.oem3 (.data:ti_sysbios_knl_Task_Module__state__V)

.data:ti_sysbios_family_arm_m3_Hwi_Module__state__V 
*          0    20000144    00000034     UNINITIALIZED
                  20000144    00000034     rfExamples_pem3.oem3 (.data:ti_sysbios_family_arm_m3_Hwi_Module__state__V)

.data:ti_sysbios_knl_Clock_Module__state__V 
*          0    20000178    0000002c     UNINITIALIZED
                  20000178    0000002c     rfExamples_pem3.oem3 (.data:ti_sysbios_knl_Clock_Module__state__V)

.data:ti_sysbios_BIOS_Module__state__V 
*          0    200001a4    00000024     UNINITIALIZED
                  200001a4    00000024     rfExamples_pem3.oem3 (.data:ti_sysbios_BIOS_Module__state__V)

.data:ti_sysbios_knl_Swi_Module__state__V 
*          0    200001c8    0000001c     UNINITIALIZED
                  200001c8    0000001c     rfExamples_pem3.oem3 (.data:ti_sysbios_knl_Swi_Module__state__V)

.data:ti_sysbios_family_arm_cc26xx_Timer_Module__state__V 
*          0    200001e4    00000008     UNINITIALIZED
                  200001e4    00000008     rfExamples_pem3.oem3 (.data:ti_sysbios_family_arm_cc26xx_Timer_Module__state__V)

.data:ti_sysbios_family_arm_cc26xx_TimestampProvider_Module__state__V 
*          0    200001ec    00000004     UNINITIALIZED
                  200001ec    00000004     rfExamples_pem3.oem3 (.data:ti_sysbios_family_arm_cc26xx_TimestampProvider_Module__state__V)

.data:xdc_runtime_Startup_Module__state__V 
*          0    200001f0    00000008     UNINITIALIZED
                  200001f0    00000008     rfExamples_pem3.oem3 (.data:xdc_runtime_Startup_Module__state__V)

.data:xdc_runtime_System_Module__state__V 
*          0    200001f8    00000008     UNINITIALIZED
                  200001f8    00000008     rfExamples_pem3.oem3 (.data:xdc_runtime_System_Module__state__V)

.data:xdc_runtime_Memory_Module__state__V 
*          0    20000200    00000004     UNINITIALIZED
                  20000200    00000004     rfExamples_pem3.oem3 (.data:xdc_runtime_Memory_Module__state__V)

.bss       0    20000208    00001a30     UNINITIALIZED
                  20000208    00000400     NodeRadioTask.obj (.bss:nodeRadioTaskStack)
                  20000608    00000400     NodeTask.obj (.bss:nodeTaskStack)
                  20000a08    00000400     (.common:ti_sysbios_heaps_HeapMem_Instance_State_0_buf__A)
                  20000e08    00000200     rfExamples_pem3.oem3 (.bss:taskStackSection)
                  20001008    000001c0     (.common:i2cCC26xxObjects)
                  200011c8    00000100     rf_singleMode_cc26xxware.aem3 : RFCC26XX_singleMode.oem3 (.bss:aCmdPool)
                  200012c8    000000c8     (.common:ti_sysbios_family_arm_m3_Hwi_dispatchTable)
                  20001390    000000c0     EasyLink.obj (.bss:rfObject)
                  20001450    0000009c     NodeRadioTask.obj (.bss:currentRadioOperation)
                  200014ec    00000098     EasyLink.obj (.bss:rxBuffer)
                  20001584    00000098     EasyLink.obj (.bss:rxPacket$1)
                  2000161c    0000008c     EasyLink.obj (.bss:txBuffer)
                  200016a8    0000007c     drivers_cc26xxware.aem3 : PINCC26XX.oem3 (.bss:PIN_HandleTable)
                  20001724    00000050     (.common:nodeRadioTask)
                  20001774    00000050     (.common:nodeTask)
                  200017c4    0000003c     NodeRadioTask.obj (.bss:nodeRadioTaskParams)
                  20001800    0000003c     NodeTask.obj (.bss:nodeTaskParams)
                  2000183c    00000034     drivers_cc26xxware.aem3 : PINCC26XX.oem3 (.bss:PinSwi)
                  20001870    00000034     rf_singleMode_cc26xxware.aem3 : RFCC26XX_singleMode.oem3 (.bss:swiFsm)
                  200018a4    00000034                                   : RFCC26XX_singleMode.oem3 (.bss:swiHw)
                  200018d8    00000030     EasyLink.obj (.bss:EasyLink_cmdPropRxAdv)
                  20001908    00000024     rf_singleMode_cc26xxware.aem3 : RFCC26XX_singleMode.oem3 (.bss:clkPowerUp)
                  2000192c    00000024     PersonlizationTask.obj (.bss:t)
                  20001950    00000020     EasyLink.obj (.bss:EasyLink_cmdPropRadioSetup)
                  20001970    00000020     NodeRadioTask.obj (.bss)
                  20001990    00000020     SensorI2C.obj (.bss:buffer)
                  200019b0    00000020     (.common:PinGpioConfigTable)
                  200019d0    0000001c     SensorI2C.obj (.bss:mutex)
                  200019ec    0000001c     NodeRadioTask.obj (.bss:pmSensorPacket)
                  20001a08    0000001c     (.common:PinHwi)
                  20001a24    0000001c     (.common:PinSem)
                  20001a40    0000001c     (.common:hwiCpe0)
                  20001a5c    0000001c     (.common:hwiHw)
                  20001a78    0000001c     (.common:radioAccessSem)
                  20001a94    0000001c     (.common:radioResultSem)
                  20001ab0    00000018     EasyLink.obj (.bss:EasyLink_cmdFs)
                  20001ac8    00000018     EasyLink.obj (.bss:EasyLink_cmdPropTx)
                  20001ae0    00000018     (.common:cmdDirImm)
                  20001af8    00000014     NodeTask.obj (.bss)
                  20001b0c    00000014     driverlib.lib : osc.obj (.bss:oscHfGlobals)
                  20001b20    00000014     EasyLink.obj (.bss:rfParams)
                  20001b34    00000014     (.common:cmdQ)
                  20001b48    00000014     (.common:nodeEvent)
                  20001b5c    00000014     (.common:opRatSync)
                  20001b70    00000014     (.common:radioOperationEvent)
                  20001b84    00000010     EasyLink.obj (.bss)
                  20001b94    00000010     EasyLink.obj (.bss:EasyLink_RF_prop)
                  20001ba4    00000010     SensorMpu9250.obj (.bss)
                  20001bb4    00000010     SensorI2C.obj (.bss:i2cParams)
                  20001bc4    0000000c     NodeTask.obj (.bss:ledPinState)
                  20001bd0    0000000c     EasyLink.obj (.bss:rxStatistics)
                  20001bdc    00000008     EasyLink.obj (.bss:dataQueue)
                  20001be4    00000008     driverlib.lib : sys_ctrl.obj (.bss:powerQualGlobals)
                  20001bec    00000008     NodeTask.obj (.bss:sensorData)
                  20001bf4    00000008     NodeTask.obj (.bss:sensorData_Ini)
                  20001bfc    00000006     SensorI2C.obj (.bss)
                  20001c02    00000002     SensorTmp007.obj (.bss)
                  20001c04    00000005     PersonlizationTask.obj (.bss)
                  20001c09    00000004     SensorMpu9250.obj (.bss:rawData$2)
                  20001c0d    00000001     (.common:bInitAvailRatCh)
                  20001c0e    00000001     (.common:bPowerDownActive)
                  20001c0f    00000001     (.common:bPowerUpActive)
                  20001c10    00000004     (.common:PIN_NumPins)
                  20001c14    00000004     (.common:activeTimeInUs)
                  20001c18    00000004     (.common:dispatchInUs)
                  20001c1c    00000004     (.common:nRtc1)
                  20001c20    00000004     (.common:nRtc3)
                  20001c24    00000004     (.common:pCurrClient)
                  20001c28    00000004     (.common:pFsmState)
                  20001c2c    00000004     (.common:pPinGpio)
                  20001c30    00000001     (.common:bRadioActive)
                  20001c31    00000001     (.common:bRestart)
                  20001c32    00000001     (.common:bStart)
                  20001c33    00000001     (.common:bYieldPwrDnCalled)
                  20001c34    00000001     (.common:bYieldPwrDnCancel)
                  20001c35    00000001     (.common:driverlib_release_0_47020)
                  20001c36    00000001     (.common:nActiveClients)
                  20001c37    00000001     (.common:nClients)

.data      0    20001c38    00000618     UNINITIALIZED
                  20001c38    00000110     drivers_cc26xxware.aem3 : PowerCC26XX.oem3 (.data:PowerCC26XX_module)
                  20001d48    00000068     smartrf_settings.obj (.data:pOverrides)
                  20001db0    00000068     smartrf_settings_predefined.obj (.data:pOverrides_fsk)
                  20001e18    0000004c     rfExamples_pem3.oem3 (.data:ti_sysbios_knl_Task_Object__table__V)
                  20001e64    00000004     PersonlizationTask.obj (.data:NodeOperationMode_SleepingValue)
                  20001e68    00000048     rfExamples_pem3.oem3 (.data:ti_sysbios_family_arm_cc26xx_Timer_Object__table__V)
                  20001eb0    0000003c     smartrf_settings_predefined.obj (.data)
                  20001eec    00000038     rfExamples_pem3.oem3 (.data:ti_sysbios_gates_GateMutex_Object__table__V)
                  20001f24    00000030     smartrf_settings_predefined.obj (.data:RF_cmdPropRxAdv_preDef)
                  20001f54    00000030     rfExamples_pem3.oem3 (.data:ti_sysbios_knl_Swi_Module_State_0_readyQ__A)
                  20001f84    00000030     rfExamples_pem3.oem3 (.data:ti_sysbios_knl_Swi_Object__table__V)
                  20001fb4    00000024     rtsv7M3_T_le_eabi.lib : localtim.obj (.data:local_tm)
                  20001fd8    00000020     smartrf_settings.obj (.data:RF_cmdPropRadioDivSetup)
                  20001ff8    00000020     smartrf_settings_predefined.obj (.data:RF_cmdPropRadioSetup_2_4G_fsk)
                  20002018    00000020     NodeTask.obj (.data:pinTable)
                  20002038    00000020     rfExamples_pem3.oem3 (.data:ti_sysbios_knl_Clock_Object__table__V)
                  20002058    00000020     rfExamples_pem3.oem3 (.data:ti_sysbios_knl_Task_Module_State_0_readyQ__A)
                  20002078    0000001c     EasyLink.obj (.data:txTestCmd$2)
                  20002094    00000018     smartrf_settings.obj (.data:RF_cmdFs)
                  200020ac    00000018     smartrf_settings_predefined.obj (.data:RF_cmdFs_preDef)
                  200020c4    00000018     smartrf_settings.obj (.data:RF_cmdPropTx)
                  200020dc    00000018     smartrf_settings_predefined.obj (.data:RF_cmdPropTx_preDef)
                  200020f4    00000018     EasyLink.obj (.data:addrFilterTable)
                  2000210c    00000018     smartrf_settings.obj (.data:shape)
                  20002124    00000018     smartrf_settings_predefined.obj (.data:shape_preDef)
                  2000213c    00000018     rfExamples_pem3.oem3 (.data:ti_sysbios_family_arm_m3_Hwi_Object__table__V)
                  20002154    00000018     rfExamples_pem3.oem3 (.data:ti_sysbios_heaps_HeapMem_Object__table__V)
                  2000216c    00000010     smartrf_settings.obj (.data:RF_prop)
                  2000217c    00000010     smartrf_settings_predefined.obj (.data:RF_prop_2_4G_fsk)
                  2000218c    00000010     rtsv7M3_T_le_eabi.lib : tmzone.obj (.data:_tz)
                  2000219c    0000000e     EasyLink.obj (.data)
                  200021aa    00000002     NodeRadioTask.obj (.data)
                  200021ac    00000009     SensorMpu9250.obj (.data)
                  200021b5    00000002     rf_singleMode_cc26xxware.aem3 : RFCC26XX_singleMode.oem3 (.data)
                  200021b7    00000001     PersonlizationTask.obj (.data)
                  200021b8    00000008     rtsv7M3_T_le_eabi.lib : _lock.obj (.data:$O1$$)
                  200021c0    00000008     NodeTask.obj (.data)
                  200021c8    00000008     rfExamples_pem3.oem3 (.data:ti_sysbios_family_arm_cc26xx_Seconds_Module__state__V)
                  200021d0    00000008     rfExamples_pem3.oem3 (.data:ti_sysbios_family_arm_m3_Hwi_Module__root__V)
                  200021d8    00000008     rfExamples_pem3.oem3 (.data:ti_sysbios_gates_GateHwi_Module__root__V)
                  200021e0    00000008     rfExamples_pem3.oem3 (.data:ti_sysbios_gates_GateMutex_Module__root__V)
                  200021e8    00000008     rfExamples_pem3.oem3 (.data:ti_sysbios_hal_Hwi_Module__root__V)
                  200021f0    00000008     rfExamples_pem3.oem3 (.data:ti_sysbios_heaps_HeapMem_Module__root__V)
                  200021f8    00000008     rfExamples_pem3.oem3 (.data:ti_sysbios_knl_Clock_Module__root__V)
                  20002200    00000008     rfExamples_pem3.oem3 (.data:ti_sysbios_knl_Event_Module__root__V)
                  20002208    00000008     rfExamples_pem3.oem3 (.data:ti_sysbios_knl_Mailbox_Module__root__V)
                  20002210    00000008     rfExamples_pem3.oem3 (.data:ti_sysbios_knl_Queue_Module__root__V)
                  20002218    00000008     rfExamples_pem3.oem3 (.data:ti_sysbios_knl_Semaphore_Module__root__V)
                  20002220    00000008     rfExamples_pem3.oem3 (.data:ti_sysbios_knl_Swi_Module__root__V)
                  20002228    00000008     rfExamples_pem3.oem3 (.data:ti_sysbios_knl_Task_Module__root__V)
                  20002230    00000005     PersonlizationTask.obj (.data:NodeOperationMode_SleepingTableModes)
                  20002235    00000005     PersonlizationTask.obj (.data:NodeOperationMode_SleepingTablePeriods)
                  2000223a    00000002     rfExamples_pem3.oem3 (.data:ti_sysbios_family_arm_m3_Hwi_Module_State_0_excActive__A)
                  2000223c    00000004     drivers_cc26xxware.aem3 : I2C.oem3 (.data)
                  20002240    00000004     rtsv7M3_T_le_eabi.lib : stkdepth_vars.obj (.data)
                  20002244    00000004     rfExamples_pem3.oem3 (.data:ti_sysbios_family_arm_m3_Hwi_Module_State_0_excContext__A)
                  20002248    00000004     rfExamples_pem3.oem3 (.data:ti_sysbios_family_arm_m3_Hwi_Module_State_0_excStack__A)
                  2000224c    00000004     rfExamples_pem3.oem3 (.data:ti_sysbios_knl_Task_Module_State_0_idleTask__A)

.stack     0    20004d00    00000300     UNINITIALIZED
                  20004d00    00000300     --HOLE--

.bootVecs 
*          0    00000000    00000008     DSECT
                  00000000    00000008     boot.aem3 : boot.oem3 (.bootVecs)

xdc.meta   0    00000000    0000010f     COPY SECTION
                  00000000    0000010f     rfExamples_pem3.oem3 (xdc.meta)

xdc.noload 
*          0    00000000    00000000     COPY SECTION

MODULE SUMMARY

       Module                            code    ro data   rw data
       ------                            ----    -------   -------
    .\
       NodeRadioTask.obj                 1406    0         1458   
       NodeTask.obj                      1100    0         1272   
       CC2650STK.obj                     0       216       448    
       PersonlizationTask.obj            220     0         56     
       ccfg.obj                          0       88        0      
       rfWsnNode.obj                     68      0         0      
    +--+---------------------------------+-------+---------+---------+
       Total:                            2794    304       3234   
                                                                  
    .\easylink\
       EasyLink.obj                      2714    0         902    
    +--+---------------------------------+-------+---------+---------+
       Total:                            2714    0         902    
                                                                  
    .\sensors\
       SensorMpu9250.obj                 1442    0         29     
       SensorI2C.obj                     638     4         82     
       SensorTmp007.obj                  106     0         2      
       SensorOpt3001.obj                 68      0         0      
    +--+---------------------------------+-------+---------+---------+
       Total:                            2254    4         113    
                                                                  
    .\smartrf_settings\
       smartrf_settings_predefined.obj   726     3844      332    
       smartrf_settings.obj              726     3844      224    
    +--+---------------------------------+-------+---------+---------+
       Total:                            1452    7688      556    
                                                                  
    C:\Users\arabal\workspace_v7\zrfWsnNode_CC2650_LAUNCHXL_TI_for_SensorTag_Synch\Debug\configPkg\package\cfg\
       rfExamples_pem3.oem3              472     1519      2726   
    +--+---------------------------------+-------+---------+---------+
       Total:                            472     1519      2726   
                                                                  
    C:/ti/tirex-content/tirtos_cc13xx_cc26xx_2_21_00_06/products/cc26xxware_2_24_03_17272/driverlib/bin/ccs/driverlib.lib
       setup_rom.obj                     1300    0         0      
       sys_ctrl.obj                      712     0         8      
       setup.obj                         356     0         0      
       osc.obj                           332     0         20     
       chipinfo.obj                      304     0         0      
       ddi.obj                           180     0         0      
       rfc.obj                           168     0         0      
       aon_rtc.obj                       44      0         0      
       adi.obj                           40      0         0      
       aon_batmon.obj                    40      0         0      
       cpu.obj                           30      0         0      
       vims.obj                          14      0         0      
       driverlib_release.obj             0       0         1      
    +--+---------------------------------+-------+---------+---------+
       Total:                            3520    0         29     
                                                                  
    C:/ti/tirex-content/tirtos_cc13xx_cc26xx_2_21_00_06/products/tidrivers_cc13xx_cc26xx_2_21_00_04/packages/ti/drivers/lib/drivers_cc26xxware.aem3
       PowerCC26XX.oem3                  2064    76        272    
       PINCC26XX.oem3                    1342    0         272    
       PowerCC26XX_calibrateRCOSC.oem3   1400    0         0      
       I2CCC26XX.oem3                    1358    32        0      
       I2C.oem3                          140     16        4      
       List.oem3                         82      0         0      
    +--+---------------------------------+-------+---------+---------+
       Total:                            6386    124       548    
                                                                  
    C:/ti/tirex-content/tirtos_cc13xx_cc26xx_2_21_00_06/products/tidrivers_cc13xx_cc26xx_2_21_00_04/packages/ti/drivers/lib/power_cc26xx_tirtos.aem3
       PowerCC26XX_tirtos.oem3           212     0         0      
    +--+---------------------------------+-------+---------+---------+
       Total:                            212     0         0      
                                                                  
    C:/ti/tirex-content/tirtos_cc13xx_cc26xx_2_21_00_06/products/tidrivers_cc13xx_cc26xx_2_21_00_04/packages/ti/drivers/ports/lib/tirtosport.aem3
       HwiP_tirtos.oem3                  4       0         0      
    +--+---------------------------------+-------+---------+---------+
       Total:                            4       0         0      
                                                                  
    C:/ti/tirex-content/tirtos_cc13xx_cc26xx_2_21_00_06/products/tidrivers_cc13xx_cc26xx_2_21_00_04/packages/ti/drivers/rf/lib/rf_singleMode_cc26xxware.aem3
       RFCC26XX_singleMode.oem3          4610    20        552    
    +--+---------------------------------+-------+---------+---------+
       Total:                            4610    20        552    
                                                                  
    C:\Users\arabal\workspace_v7\zrfWsnNode_CC2650_LAUNCHXL_TI_for_SensorTag_Synch\src\sysbios\rom_sysbios.aem3
       rom_sysbios.obj                   1246    0         0      
    +--+---------------------------------+-------+---------+---------+
       Total:                            1246    0         0      
                                                                  
    C:\ti\ccsv7\tools\compiler\ti-cgt-arm_16.9.0.LTS\lib\rtsv7M3_T_le_eabi.lib
       mktime.obj                        672     96        0      
       ll_div_t2.obj                     542     0         0      
       ull_div_t2.obj                    500     0         0      
       localtim.obj                      312     0         36     
       memcpy_t2.obj                     156     0         0      
       memset_t2.obj                     122     0         0      
       copy_decompress_lzss.obj          104     0         0      
       cpy_tbl.obj                       76      0         0      
       u_divt2.obj                       64      0         0      
       _lock.obj                         20      0         8      
       args_main.obj                     24      0         0      
       ll_mul_t2.obj                     24      0         0      
       tmzone.obj                        0       0         16     
       copy_decompress_none.obj          14      0         0      
       copy_zero_init.obj                12      0         0      
       stkdepth_vars.obj                 0       0         4      
       i_div0.obj                        2       0         0      
       l_div0.obj                        2       0         0      
    +--+---------------------------------+-------+---------+---------+
       Total:                            2646    96        64     
                                                                  
    C:\ti\tirex-content\tirtos_cc13xx_cc26xx_2_21_00_06\products\bios_6_46_01_37\packages\ti\targets\arm\rtsarm\lib\auto_init.aem3
       auto_init.oem3                    160     0         0      
    +--+---------------------------------+-------+---------+---------+
       Total:                            160     0         0      
                                                                  
    C:\ti\tirex-content\tirtos_cc13xx_cc26xx_2_21_00_06\products\bios_6_46_01_37\packages\ti\targets\arm\rtsarm\lib\boot.aem3
       boot.oem3                         68      0         0      
    +--+---------------------------------+-------+---------+---------+
       Total:                            68      0         0      
                                                                  
       Stack:                            0       0         768    
       Linker Generated:                 496     896       0      
    +--+---------------------------------+-------+---------+---------+
       Grand Total:                      29034   10651     9492   


LINKER GENERATED COPY TABLES

__TI_cinit_table @ 00009b28 records: 12, size/record: 8, table size: 96
	.data: load addr=00009800, load size=0000024e bytes, run addr=20001c38, run size=00000618 bytes, compression=lzss
	.data:ti_sysbios_family_arm_m3_Hwi_Module__state__V: load addr=00009a4e, load size=00000028 bytes, run addr=20000144, run size=00000034 bytes, compression=lzss
	.data:ti_sysbios_knl_Task_Module__state__V: load addr=00009a76, load size=00000021 bytes, run addr=20000100, run size=00000044 bytes, compression=lzss
	.data:ti_sysbios_BIOS_Module__state__V: load addr=00009a97, load size=0000001f bytes, run addr=200001a4, run size=00000024 bytes, compression=lzss
	.data:ti_sysbios_knl_Clock_Module__state__V: load addr=00009ab6, load size=0000001e bytes, run addr=20000178, run size=0000002c bytes, compression=lzss
	.data:ti_sysbios_knl_Swi_Module__state__V: load addr=00009ad4, load size=00000010 bytes, run addr=200001c8, run size=0000001c bytes, compression=lzss
	.data:ti_sysbios_family_arm_cc26xx_Timer_Module__state__V: load addr=00009af0, load size=0000000b bytes, run addr=200001e4, run size=00000008 bytes, compression=lzss
	.bss: load addr=00009b00, load size=00000008 bytes, run addr=20000208, run size=00001a30 bytes, compression=zero_init
	.data:xdc_runtime_Memory_Module__state__V: load addr=00009b08, load size=00000008 bytes, run addr=20000200, run size=00000004 bytes, compression=lzss
	.data:ti_sysbios_family_arm_cc26xx_TimestampProvider_Module__state__V: load addr=00009b10, load size=00000007 bytes, run addr=200001ec, run size=00000004 bytes, compression=lzss
	.data:xdc_runtime_Startup_Module__state__V: load addr=00009b17, load size=00000007 bytes, run addr=200001f0, run size=00000008 bytes, compression=lzss
	.data:xdc_runtime_System_Module__state__V: load addr=00009b1e, load size=00000007 bytes, run addr=200001f8, run size=00000008 bytes, compression=lzss


LINKER GENERATED HANDLER TABLE

__TI_handler_table @ 00009ae4 records: 3, size/record: 4, table size: 12
	index: 0, handler: __TI_decompress_lzss
	index: 1, handler: __TI_decompress_none
	index: 2, handler: __TI_zero_init


FAR CALL TRAMPOLINES

callee name               trampoline name
   callee addr  tramp addr   call addr  call info
--------------  -----------  ---------  ----------------
xdc_runtime_Core_assignParams__I  $Tramp$TT$L$PI$$xdc_runtime_Core_assignParams__I
   1001c5f1     00007568     0000747c   rfExamples_pem3.oem3 (.text:ti_sysbios_knl_Event_Params__init__S)
xdc_runtime_Startup_startMods__I  $Tramp$TT$L$PI$$xdc_runtime_Startup_startMods__I
   1001c30d     00007570     0000732e   rfExamples_pem3.oem3 (.text:xdc_runtime_Startup_exec__I)
ti_sysbios_knl_Queue_construct  $Tramp$TT$L$PI$$ti_sysbios_knl_Queue_construct
   1001b8f5     00007578     0000731a   rom_sysbios.aem3 : rom_sysbios.obj (.text:ti_sysbios_knl_Event_Instance_init__E)
ti_sysbios_knl_Clock_logTick__E  $Tramp$TT$L$PI$$ti_sysbios_knl_Clock_logTick__E
   1001be67     00007580     000072fe   rfExamples_pem3.oem3 (.text:ti_sysbios_knl_Clock_doTick__I)
ti_sysbios_knl_Task_Params__init__S  $Tramp$TT$L$PI$$ti_sysbios_knl_Task_Params__init__S
   1001c1d9     00007588     00007254   NodeRadioTask.obj (.text:ti_sysbios_knl_Task_Params_init)
                             0000726a   NodeTask.obj (.text:ti_sysbios_knl_Task_Params_init)
ti_sysbios_BIOS_RtsGateProxy_leave__E  $Tramp$TT$L$PI$$ti_sysbios_BIOS_RtsGateProxy_leave__E
   1001c24d     00007590     00007186   rfExamples_pem3.oem3 (.text:ti_sysbios_BIOS_rtsUnlock__I)
ti_sysbios_BIOS_RtsGateProxy_enter__E  $Tramp$TT$L$PI$$ti_sysbios_BIOS_RtsGateProxy_enter__E
   1001c249     00007598     00006e16   rfExamples_pem3.oem3 (.text:ti_sysbios_BIOS_rtsLock__I)
xdc_runtime_Core_constructObject__I  $Tramp$TT$L$PI$$xdc_runtime_Core_constructObject__I
   1001c639     000075a0     00006b04   rfExamples_pem3.oem3 (.text:ti_sysbios_knl_Event_construct)
ti_sysbios_knl_Task_startup__E  $Tramp$TT$L$PI$$ti_sysbios_knl_Task_startup__E
   1001c309     000075a8     000069a8   rfExamples_pem3.oem3 (.text:ti_sysbios_BIOS_startFunc__I)
ti_sysbios_knl_Swi_startup__E  $Tramp$TT$L$PI$$ti_sysbios_knl_Swi_startup__E
   1001c23d     000075b0     000069a4   rfExamples_pem3.oem3 (.text:ti_sysbios_BIOS_startFunc__I)
ti_sysbios_hal_Hwi_startup__E  $Tramp$TT$L$PI$$ti_sysbios_hal_Hwi_startup__E
   1001c28d     000075b8     000069a0   rfExamples_pem3.oem3 (.text:ti_sysbios_BIOS_startFunc__I)
ti_sysbios_family_arm_cc26xx_Timer_startup__E  $Tramp$TT$L$PI$$ti_sysbios_family_arm_cc26xx_Timer_startup__E
   1001b795     000075c0     0000699c   rfExamples_pem3.oem3 (.text:ti_sysbios_BIOS_startFunc__I)
xdc_runtime_System_atexit__E  $Tramp$TT$L$PI$$xdc_runtime_System_atexit__E
   1001c681     000075c8     00006994   rfExamples_pem3.oem3 (.text:ti_sysbios_BIOS_startFunc__I)
ti_sysbios_BIOS_setThreadType__E  $Tramp$TT$L$PI$$ti_sysbios_BIOS_setThreadType__E
   1001c045     000075d0     00006960   rfExamples_pem3.oem3 (.text:ti_sysbios_BIOS_atExitFunc__I)
                             000071ca   rfExamples_pem3.oem3 (.text:ti_sysbios_BIOS_exitFunc__I)
ti_sysbios_BIOS_start__E  $Tramp$TT$L$PI$$ti_sysbios_BIOS_start__E
   1001c055     000075d8     000063c4   rfWsnNode.obj (.text:main)
xdc_runtime_System_exit__E  $Tramp$TT$L$PI$$xdc_runtime_System_exit__E
   1001c7d1     000075e0     0000638c   boot.aem3 : boot.oem3 (.text)
                             000071d0   rfExamples_pem3.oem3 (.text:ti_sysbios_BIOS_exitFunc__I)
ti_sysbios_BIOS_getCpuFreq__E  $Tramp$TT$L$PI$$ti_sysbios_BIOS_getCpuFreq__E
   1001bff9     000075e8     000060e4   drivers_cc26xxware.aem3 : I2CCC26XX.oem3 (.text:I2CCC26XX_initHw)
ti_sysbios_knl_Task_unblockI__E  $Tramp$TT$L$PI$$ti_sysbios_knl_Task_unblockI__E
   1001b9a5     000075f0     00005442   rom_sysbios.aem3 : rom_sysbios.obj (.text:ti_sysbios_knl_Event_post__E)
                             00006b3a                    : rom_sysbios.obj (.text:ti_sysbios_knl_Event_pendTimeout__I)
ti_sysbios_knl_Queue_remove__E  $Tramp$TT$L$PI$$ti_sysbios_knl_Queue_remove__E
   1001c121     000075f8     0000542e   rom_sysbios.aem3 : rom_sysbios.obj (.text:ti_sysbios_knl_Event_post__E)
                             00006b2e                    : rom_sysbios.obj (.text:ti_sysbios_knl_Event_pendTimeout__I)
ti_sysbios_knl_Queue_head__E  $Tramp$TT$L$PI$$ti_sysbios_knl_Queue_head__E
   1001c2d5     00007600     00005416   rom_sysbios.aem3 : rom_sysbios.obj (.text:ti_sysbios_knl_Event_post__E)
ti_sysbios_knl_Queue_empty__E  $Tramp$TT$L$PI$$ti_sysbios_knl_Queue_empty__E
   1001c113     00007608     00005408   rom_sysbios.aem3 : rom_sysbios.obj (.text:ti_sysbios_knl_Event_post__E)
ti_sysbios_knl_Clock_scheduleNextTick__E  $Tramp$TT$L$PI$$ti_sysbios_knl_Clock_scheduleNextTick__E
   1001bebd     00007610     0000491e   rom_sysbios.aem3 : rom_sysbios.obj (.text:ti_sysbios_knl_Clock_workFuncDynamic__E)
ti_sysbios_knl_Clock_walkQueueDynamic__E  $Tramp$TT$L$PI$$ti_sysbios_knl_Clock_walkQueueDynamic__E
   1001a80d     00007618     000048e6   rom_sysbios.aem3 : rom_sysbios.obj (.text:ti_sysbios_knl_Clock_workFuncDynamic__E)
                             00004902                    : rom_sysbios.obj (.text:ti_sysbios_knl_Clock_workFuncDynamic__E)
ti_sysbios_knl_Clock_TimerProxy_getCurrentTick__E  $Tramp$TT$L$PI$$ti_sysbios_knl_Clock_TimerProxy_getCurrentTick__E
   1001c095     00007620     000048b4   rom_sysbios.aem3 : rom_sysbios.obj (.text:ti_sysbios_knl_Clock_workFuncDynamic__E)
                             00006ad2                    : rom_sysbios.obj (.text:ti_sysbios_knl_Clock_getTicksUntilInterrupt__E)
ti_sysbios_knl_Task_construct  $Tramp$TT$L$PI$$ti_sysbios_knl_Task_construct
   1001b125     00007628     00004548   NodeRadioTask.obj (.text:NodeRadioTask_init)
                             00005508   NodeTask.obj (.text:NodeTask_init)
ti_sysbios_family_arm_m3_Hwi_disableInterrupt__E  $Tramp$TT$L$PI$$ti_sysbios_family_arm_m3_Hwi_disableInterrupt__E
   1001b299     00007630     0000417a   drivers_cc26xxware.aem3 : I2CCC26XX.oem3 (.text:I2CCC26XX_transfer)
ti_sysbios_family_arm_m3_Hwi_enableInterrupt__E  $Tramp$TT$L$PI$$ti_sysbios_family_arm_m3_Hwi_enableInterrupt__E
   1001b2dd     00007638     000040e0   rf_singleMode_cc26xxware.aem3 : RFCC26XX_singleMode.oem3 (.text:fsmPowerUpState)
                             0000418c   drivers_cc26xxware.aem3 : I2CCC26XX.oem3 (.text:I2CCC26XX_transfer)
ti_sysbios_knl_Clock_removeI__E  $Tramp$TT$L$PI$$ti_sysbios_knl_Clock_removeI__E
   1001c2bd     00007640     00003968   rom_sysbios.aem3 : rom_sysbios.obj (.text:ti_sysbios_knl_Event_pend__E)
                             00003988                    : rom_sysbios.obj (.text:ti_sysbios_knl_Event_pend__E)
ti_sysbios_knl_Clock_startI__E  $Tramp$TT$L$PI$$ti_sysbios_knl_Clock_startI__E
   1001a719     00007648     0000394e   rom_sysbios.aem3 : rom_sysbios.obj (.text:ti_sysbios_knl_Event_pend__E)
ti_sysbios_knl_Task_blockI__E  $Tramp$TT$L$PI$$ti_sysbios_knl_Task_blockI__E
   1001b615     00007650     0000393e   rom_sysbios.aem3 : rom_sysbios.obj (.text:ti_sysbios_knl_Event_pend__E)
ti_sysbios_knl_Queue_enqueue__E  $Tramp$TT$L$PI$$ti_sysbios_knl_Queue_enqueue__E
   1001c1b5     00007658     00003938   rom_sysbios.aem3 : rom_sysbios.obj (.text:ti_sysbios_knl_Event_pend__E)
ti_sysbios_knl_Task_self__E  $Tramp$TT$L$PI$$ti_sysbios_knl_Task_self__E
   1001c1e5     00007660     000038fe   rom_sysbios.aem3 : rom_sysbios.obj (.text:ti_sysbios_knl_Event_pend__E)
ti_sysbios_knl_Clock_addI__E  $Tramp$TT$L$PI$$ti_sysbios_knl_Clock_addI__E
   1001ba21     00007668     000038dc   rom_sysbios.aem3 : rom_sysbios.obj (.text:ti_sysbios_knl_Event_pend__E)
ti_sysbios_knl_Swi_post__E  $Tramp$TT$L$PI$$ti_sysbios_knl_Swi_post__E
   1001b321     00007670     000038ae   drivers_cc26xxware.aem3 : I2CCC26XX.oem3 (.text:I2CCC26XX_hwiFxn)
                             000041ca                           : I2CCC26XX.oem3 (.text:I2CCC26XX_transfer)
                             00005c60                           : I2CCC26XX.oem3 (.text:I2CCC26XX_swiFxn)
                             000071a4   rom_sysbios.aem3 : rom_sysbios.obj (.text:ti_sysbios_knl_Swi_or__E)
                             00007306   rfExamples_pem3.oem3 (.text:ti_sysbios_knl_Clock_doTick__I)
ti_sysbios_family_arm_m3_Hwi_destruct  $Tramp$TT$L$PI$$ti_sysbios_family_arm_m3_Hwi_destruct
   1001c261     00007678     0000356c   rf_singleMode_cc26xxware.aem3 : RFCC26XX_singleMode.oem3 (.text:RF_close)
                             00003578                                 : RFCC26XX_singleMode.oem3 (.text:RF_close)
                             000057cc   drivers_cc26xxware.aem3 : I2CCC26XX.oem3 (.text:I2CCC26XX_close)
ti_sysbios_knl_Swi_destruct  $Tramp$TT$L$PI$$ti_sysbios_knl_Swi_destruct
   1001c2e9     00007680     00003566   rf_singleMode_cc26xxware.aem3 : RFCC26XX_singleMode.oem3 (.text:RF_close)
                             00003572                                 : RFCC26XX_singleMode.oem3 (.text:RF_close)
                             000057d4   drivers_cc26xxware.aem3 : I2CCC26XX.oem3 (.text:I2CCC26XX_close)
ti_sysbios_knl_Clock_destruct  $Tramp$TT$L$PI$$ti_sysbios_knl_Clock_destruct
   1001c2b9     00007688     00003560   rf_singleMode_cc26xxware.aem3 : RFCC26XX_singleMode.oem3 (.text:RF_close)
                             0000357e                                 : RFCC26XX_singleMode.oem3 (.text:RF_close)
                             000035b0                                 : RFCC26XX_singleMode.oem3 (.text:RF_close)
ti_sysbios_knl_Semaphore_destruct  $Tramp$TT$L$PI$$ti_sysbios_knl_Semaphore_destruct
   1001c2e1     00007690     00003558   rf_singleMode_cc26xxware.aem3 : RFCC26XX_singleMode.oem3 (.text:RF_close)
                             000035a8                                 : RFCC26XX_singleMode.oem3 (.text:RF_close)
                             000057dc   drivers_cc26xxware.aem3 : I2CCC26XX.oem3 (.text:I2CCC26XX_close)
                             000057e8                           : I2CCC26XX.oem3 (.text:I2CCC26XX_close)
ti_sysbios_knl_Clock_Params__init__S  $Tramp$TT$L$PI$$ti_sysbios_knl_Clock_Params__init__S
   1001c185     00007698     000030b6   drivers_cc26xxware.aem3 : PowerCC26XX.oem3 (.text:Power_init)
                             0000402c   rf_singleMode_cc26xxware.aem3 : RFCC26XX_singleMode.oem3 (.text:RF_open)
                             00005560   drivers_cc26xxware.aem3 : PowerCC26XX.oem3 (.text:PowerCC26XX_calibrate)
ti_sysbios_knl_Clock_construct  $Tramp$TT$L$PI$$ti_sysbios_knl_Clock_construct
   1001b579     000076a0     00002ffe   rf_singleMode_cc26xxware.aem3 : RFCC26XX_singleMode.oem3 (.text:rf_init)
                             000030ce   drivers_cc26xxware.aem3 : PowerCC26XX.oem3 (.text:Power_init)
                             000030dc                           : PowerCC26XX.oem3 (.text:Power_init)
                             000030ea                           : PowerCC26XX.oem3 (.text:Power_init)
                             0000403c   rf_singleMode_cc26xxware.aem3 : RFCC26XX_singleMode.oem3 (.text:RF_open)
                             00005578   drivers_cc26xxware.aem3 : PowerCC26XX.oem3 (.text:PowerCC26XX_calibrate)
ti_sysbios_knl_Task_sleep__E  $Tramp$TT$L$PI$$ti_sysbios_knl_Task_sleep__E
   1001a96d     000076a8     0000223c   NodeTask.obj (.text:CheckParkingSensor)
                             00002272   NodeTask.obj (.text:CheckParkingSensor)
                             000022e8   NodeTask.obj (.text:CheckParkingSensor)
                             0000274e   EasyLink.obj (.text:enableTestMode)
                             00003734   NodeTask.obj (.text:nodeTaskFunction)
                             00003780   NodeTask.obj (.text:nodeTaskFunction)
                             00004382   NodeTask.obj (.text:CalibrateParkingSensor)
                             0000439c   NodeTask.obj (.text:CalibrateParkingSensor)
                             000043be   NodeTask.obj (.text:CalibrateParkingSensor)
                             00006340   NodeTask.obj (.text:DisableOtherSensors)
xdc_runtime_System_abortSpin__E  $Tramp$TT$L$PI$$xdc_runtime_System_abortSpin__E
   1001c899     000076b0     00002172   drivers_cc26xxware.aem3 : PowerCC26XX_calibrateRCOSC.oem3 (.text:PowerCC26XX_doCalibrate)
                             000058f6                           : PowerCC26XX_calibrateRCOSC.oem3 (.text:PowerCC26XX_RCOSC_clockFunc)
ti_sysbios_knl_Swi_construct  $Tramp$TT$L$PI$$ti_sysbios_knl_Swi_construct
   1001b085     000076b8     00001ea4   drivers_cc26xxware.aem3 : PINCC26XX.oem3 (.text:PIN_init)
                             00002f8e   rf_singleMode_cc26xxware.aem3 : RFCC26XX_singleMode.oem3 (.text:rf_init)
                             00002fce                                 : RFCC26XX_singleMode.oem3 (.text:rf_init)
                             00003674   drivers_cc26xxware.aem3 : I2CCC26XX.oem3 (.text:I2CCC26XX_open)
ti_sysbios_knl_Swi_Params__init__S  $Tramp$TT$L$PI$$ti_sysbios_knl_Swi_Params__init__S
   1001c1cd     000076c0     00001e92   drivers_cc26xxware.aem3 : PINCC26XX.oem3 (.text:PIN_init)
                             00002f7c   rf_singleMode_cc26xxware.aem3 : RFCC26XX_singleMode.oem3 (.text:rf_init)
                             00002fbe                                 : RFCC26XX_singleMode.oem3 (.text:rf_init)
                             00003660   drivers_cc26xxware.aem3 : I2CCC26XX.oem3 (.text:I2CCC26XX_open)
ti_sysbios_family_arm_m3_Hwi_construct  $Tramp$TT$L$PI$$ti_sysbios_family_arm_m3_Hwi_construct
   1001af29     000076c8     00001e86   drivers_cc26xxware.aem3 : PINCC26XX.oem3 (.text:PIN_init)
                             00002fb2   rf_singleMode_cc26xxware.aem3 : RFCC26XX_singleMode.oem3 (.text:rf_init)
                             00002ff2                                 : RFCC26XX_singleMode.oem3 (.text:rf_init)
                             00003654   drivers_cc26xxware.aem3 : I2CCC26XX.oem3 (.text:I2CCC26XX_open)
                             00005588                           : PowerCC26XX.oem3 (.text:PowerCC26XX_calibrate)
ti_sysbios_family_arm_m3_Hwi_Params__init__S  $Tramp$TT$L$PI$$ti_sysbios_family_arm_m3_Hwi_Params__init__S
   1001c13d     000076d0     00001e70   drivers_cc26xxware.aem3 : PINCC26XX.oem3 (.text:PIN_init)
                             00002f9a   rf_singleMode_cc26xxware.aem3 : RFCC26XX_singleMode.oem3 (.text:rf_init)
                             00002fda                                 : RFCC26XX_singleMode.oem3 (.text:rf_init)
                             0000363c   drivers_cc26xxware.aem3 : I2CCC26XX.oem3 (.text:I2CCC26XX_open)
ti_sysbios_knl_Semaphore_construct  $Tramp$TT$L$PI$$ti_sysbios_knl_Semaphore_construct
   1001b709     000076d8     00001e0e   drivers_cc26xxware.aem3 : PINCC26XX.oem3 (.text:PIN_init)
                             00003690                           : I2CCC26XX.oem3 (.text:I2CCC26XX_open)
                             000036a0                           : I2CCC26XX.oem3 (.text:I2CCC26XX_open)
                             00004020   rf_singleMode_cc26xxware.aem3 : RFCC26XX_singleMode.oem3 (.text:RF_open)
                             000044e6   NodeRadioTask.obj (.text:NodeRadioTask_init)
                             000044fa   NodeRadioTask.obj (.text:NodeRadioTask_init)
                             00005328   SensorI2C.obj (.text:SensorI2C_open)
ti_sysbios_knl_Semaphore_Params__init__S  $Tramp$TT$L$PI$$ti_sysbios_knl_Semaphore_Params__init__S
   1001c1c1     000076e0     00001dfc   drivers_cc26xxware.aem3 : PINCC26XX.oem3 (.text:PIN_init)
                             00003680                           : I2CCC26XX.oem3 (.text:I2CCC26XX_open)
                             00004010   rf_singleMode_cc26xxware.aem3 : RFCC26XX_singleMode.oem3 (.text:RF_open)
                             00007212   EasyLink.obj (.text:ti_sysbios_knl_Semaphore_Params_init)
                             00007228   NodeRadioTask.obj (.text:ti_sysbios_knl_Semaphore_Params_init)
                             0000723e   SensorI2C.obj (.text:ti_sysbios_knl_Semaphore_Params_init)
ti_sysbios_knl_Clock_getTicks__E  $Tramp$TT$L$PI$$ti_sysbios_knl_Clock_getTicks__E
   1001b6d9     000076e8     00001814   NodeRadioTask.obj (.text:nodeRadioTaskFunction)
                             00001836   NodeRadioTask.obj (.text:nodeRadioTaskFunction)
xdc_runtime_System_abort__E  $Tramp$TT$L$PI$$xdc_runtime_System_abort__E
   1001c749     000076f0     000017bc   NodeRadioTask.obj (.text:nodeRadioTaskFunction)
                             00001802   NodeRadioTask.obj (.text:nodeRadioTaskFunction)
                             000036fe   NodeTask.obj (.text:nodeTaskFunction)
                             000042e2   NodeRadioTask.obj (.text:sendPmPacket)
                             000042f2   NodeRadioTask.obj (.text:sendPmPacket)
                             000043e0   NodeTask.obj (.text:CalibrateParkingSensor)
                             000051c0   NodeRadioTask.obj (.text:resendPacket)
                             000051d0   NodeRadioTask.obj (.text:resendPacket)
                             000063b4   rfWsnNode.obj (.text:main)
ti_sysbios_knl_Task_restore__E  $Tramp$TT$L$PI$$ti_sysbios_knl_Task_restore__E
   1001ba49     000076f8     00001150   drivers_cc26xxware.aem3 : PowerCC26XX.oem3 (.text:Power_sleep)
                             00003958   rom_sysbios.aem3 : rom_sysbios.obj (.text:ti_sysbios_knl_Event_pend__E)
                             0000544c                    : rom_sysbios.obj (.text:ti_sysbios_knl_Event_post__E)
ti_sysbios_knl_Swi_restore__E  $Tramp$TT$L$PI$$ti_sysbios_knl_Swi_restore__E
   1001b5e1     00007700     00001146   drivers_cc26xxware.aem3 : PowerCC26XX.oem3 (.text:Power_sleep)
                             00004ca6   rf_singleMode_cc26xxware.aem3 : RFCC26XX_singleMode.oem3 (.text:RF_pendCmd)
                             00004ccc                                 : RFCC26XX_singleMode.oem3 (.text:RF_pendCmd)
                             00004cea                                 : RFCC26XX_singleMode.oem3 (.text:RF_pendCmd)
ti_sysbios_knl_Swi_disable__E  $Tramp$TT$L$PI$$ti_sysbios_knl_Swi_disable__E
   1001c0d5     00007708     00000fa2   drivers_cc26xxware.aem3 : PowerCC26XX.oem3 (.text:Power_sleep)
                             00004c90   rf_singleMode_cc26xxware.aem3 : RFCC26XX_singleMode.oem3 (.text:RF_pendCmd)
                             00006956   rfExamples_pem3.oem3 (.text:ti_sysbios_BIOS_atExitFunc__I)
ti_sysbios_knl_Task_disable__E  $Tramp$TT$L$PI$$ti_sysbios_knl_Task_disable__E
   1001c0f5     00007710     00000f8a   drivers_cc26xxware.aem3 : PowerCC26XX.oem3 (.text:Power_sleep)
                             00003928   rom_sysbios.aem3 : rom_sysbios.obj (.text:ti_sysbios_knl_Event_pend__E)
                             0000540e                    : rom_sysbios.obj (.text:ti_sysbios_knl_Event_post__E)
                             0000695a   rfExamples_pem3.oem3 (.text:ti_sysbios_BIOS_atExitFunc__I)
ti_sysbios_knl_Semaphore_create  $Tramp$TT$L$PI$$ti_sysbios_knl_Semaphore_create
   1001b5ad     00007718     00000c04   EasyLink.obj (.text:EasyLink_init)
xdc_runtime_Error_init__E  $Tramp$TT$L$PI$$xdc_runtime_Error_init__E
   1001c841     00007720     00000bf4   EasyLink.obj (.text:EasyLink_init)
ti_sysbios_knl_Semaphore_post__E  $Tramp$TT$L$PI$$ti_sysbios_knl_Semaphore_post__E
   1001ac41     00007728     00000b72   EasyLink.obj (.text:EasyLink_init)
                             00000c1a   EasyLink.obj (.text:EasyLink_init)
                             00000c24   EasyLink.obj (.text:EasyLink_init)
                             00001f26   EasyLink.obj (.text:rxDoneCallback)
                             00002cbe   EasyLink.obj (.text:EasyLink_transmit)
                             00003c14   EasyLink.obj (.text:EasyLink_enableRxAddrFilter)
                             000041d0   drivers_cc26xxware.aem3 : I2CCC26XX.oem3 (.text:I2CCC26XX_transfer)
                             000049b2                           : PINCC26XX.oem3 (.text:PIN_open)
                             00004f44   NodeRadioTask.obj (.text:NodeRadioTask_sendParkingData)
                             0000515e   rf_singleMode_cc26xxware.aem3 : RFCC26XX_singleMode.oem3 (.text:fsmPowerDownState)
                             00005f58                                 : RFCC26XX_singleMode.oem3 (.text:syncCb)
                             00006a7c   EasyLink.obj (.text:asyncCmdCallback)
                             00006e02   NodeRadioTask.obj (.text:returnRadioOperationStatus)
                             000072dc   SensorI2C.obj (.text:SensorI2C_deselect)
                             0000750e   drivers_cc26xxware.aem3 : I2CCC26XX.oem3 (.text:I2CCC26XX_blockingCallback)
ti_sysbios_knl_Semaphore_pend__E  $Tramp$TT$L$PI$$ti_sysbios_knl_Semaphore_pend__E
   1001a0cd     00007730     000009ba   EasyLink.obj (.text:EasyLink_init)
                             000023ae   EasyLink.obj (.text:EasyLink_receiveAsync)
                             00002696   EasyLink.obj (.text:enableTestMode)
                             00002bdc   EasyLink.obj (.text:EasyLink_transmit)
                             00003550   rf_singleMode_cc26xxware.aem3 : RFCC26XX_singleMode.oem3 (.text:RF_close)
                             00003b90   EasyLink.obj (.text:EasyLink_enableRxAddrFilter)
                             00004172   drivers_cc26xxware.aem3 : I2CCC26XX.oem3 (.text:I2CCC26XX_transfer)
                             000041a2                           : I2CCC26XX.oem3 (.text:I2CCC26XX_transfer)
                             00004646   SensorI2C.obj (.text:SensorI2C_select)
                             0000494a   drivers_cc26xxware.aem3 : PINCC26XX.oem3 (.text:PIN_open)
                             00004cd8   rf_singleMode_cc26xxware.aem3 : RFCC26XX_singleMode.oem3 (.text:RF_pendCmd)
                             00004f08   NodeRadioTask.obj (.text:NodeRadioTask_sendParkingData)
                             00004f34   NodeRadioTask.obj (.text:NodeRadioTask_sendParkingData)
ti_sysbios_knl_Clock_start__E  $Tramp$TT$L$PI$$ti_sysbios_knl_Clock_start__E
   1001bfe3     00007738     000008a0   rf_singleMode_cc26xxware.aem3 : RFCC26XX_singleMode.oem3 (.text:fsmActiveState)
                             00001ac4                                 : RFCC26XX_singleMode.oem3 (.text:RF_postCmd)
                             000021f0   drivers_cc26xxware.aem3 : PowerCC26XX_calibrateRCOSC.oem3 (.text:PowerCC26XX_doCalibrate)
                             00003168                           : PowerCC26XX.oem3 (.text:Power_init)
                             00003c88   power_cc26xx_tirtos.aem3 : PowerCC26XX_tirtos.oem3 (.text:PowerCC26XX_standbyPolicy)
                             00004aae   drivers_cc26xxware.aem3 : PowerCC26XX.oem3 (.text:switchXOSCHFclockFunc)
                             00004dbc                           : PowerCC26XX.oem3 (.text:disableLFClockQualifiers)
                             00005120   rf_singleMode_cc26xxware.aem3 : RFCC26XX_singleMode.oem3 (.text:decActiveClientCnt)
                             000059cc                                 : RFCC26XX_singleMode.oem3 (.text:fsmXOSCState)
                             00005d62   drivers_cc26xxware.aem3 : PowerCC26XX.oem3 (.text:configureXOSCHF)
                             00006e62   rom_sysbios.aem3 : rom_sysbios.obj (.text:ti_sysbios_knl_Clock_stop__E)
ti_sysbios_knl_Clock_setTimeout__E  $Tramp$TT$L$PI$$ti_sysbios_knl_Clock_setTimeout__E
   1001c2c1     00007740     00000898   rf_singleMode_cc26xxware.aem3 : RFCC26XX_singleMode.oem3 (.text:fsmActiveState)
                             00001abe                                 : RFCC26XX_singleMode.oem3 (.text:RF_postCmd)
                             00003162   drivers_cc26xxware.aem3 : PowerCC26XX.oem3 (.text:Power_init)
                             00003c82   power_cc26xx_tirtos.aem3 : PowerCC26XX_tirtos.oem3 (.text:PowerCC26XX_standbyPolicy)
                             00004aa8   drivers_cc26xxware.aem3 : PowerCC26XX.oem3 (.text:switchXOSCHFclockFunc)
                             00004db6                           : PowerCC26XX.oem3 (.text:disableLFClockQualifiers)
                             0000511a   rf_singleMode_cc26xxware.aem3 : RFCC26XX_singleMode.oem3 (.text:decActiveClientCnt)
                             000059c6                                 : RFCC26XX_singleMode.oem3 (.text:fsmXOSCState)
                             00005d5c   drivers_cc26xxware.aem3 : PowerCC26XX.oem3 (.text:configureXOSCHF)
ti_sysbios_family_arm_m3_Hwi_restoreFxn__E  $Tramp$TT$L$PI$$ti_sysbios_family_arm_m3_Hwi_restoreFxn__E
   1001c219     00007748     00000854   rf_singleMode_cc26xxware.aem3 : RFCC26XX_singleMode.oem3 (.text:fsmActiveState)
                             000008e2                                 : RFCC26XX_singleMode.oem3 (.text:fsmActiveState)
                             00000902                                 : RFCC26XX_singleMode.oem3 (.text:fsmActiveState)
                             00001a64                                 : RFCC26XX_singleMode.oem3 (.text:RF_postCmd)
                             00001ace                                 : RFCC26XX_singleMode.oem3 (.text:RF_postCmd)
                             00001b28                                 : RFCC26XX_singleMode.oem3 (.text:RF_postCmd)
                             00003534                                 : RFCC26XX_singleMode.oem3 (.text:RF_close)
                             00003596                                 : RFCC26XX_singleMode.oem3 (.text:RF_close)
                             00003608   drivers_cc26xxware.aem3 : I2CCC26XX.oem3 (.text:I2CCC26XX_open)
                             00003618                           : I2CCC26XX.oem3 (.text:I2CCC26XX_open)
                             00003b3e                           : PINCC26XX.oem3 (.text:PINCC26XX_setIoCfg)
                             00003dce                           : PowerCC26XX.oem3 (.text:Power_releaseDependency)
                             00003e9e                           : PowerCC26XX.oem3 (.text:Power_setDependency)
                             00003fc0   rf_singleMode_cc26xxware.aem3 : RFCC26XX_singleMode.oem3 (.text:RF_open)
                             00003fce                                 : RFCC26XX_singleMode.oem3 (.text:RF_open)
                             0000414c   drivers_cc26xxware.aem3 : I2CCC26XX.oem3 (.text:I2CCC26XX_transfer)
                             0000415e                           : I2CCC26XX.oem3 (.text:I2CCC26XX_transfer)
                             00004a4a                           : I2CCC26XX.oem3 (.text:I2CCC26XX_cancel)
                             00004ad6                           : PowerCC26XX.oem3 (.text:switchXOSCHFclockFunc)
                             00004c46   rf_singleMode_cc26xxware.aem3 : RFCC26XX_singleMode.oem3 (.text:swiFxnHw)
                             00004c60                                 : RFCC26XX_singleMode.oem3 (.text:swiFxnHw)
                             00005126                                 : RFCC26XX_singleMode.oem3 (.text:decActiveClientCnt)
                             00005680                                 : RFCC26XX_singleMode.oem3 (.text:RF_getCurrentTime)
                             00005688                                 : RFCC26XX_singleMode.oem3 (.text:RF_getCurrentTime)
                             000057fc   drivers_cc26xxware.aem3 : I2CCC26XX.oem3 (.text:I2CCC26XX_close)
                             00005c9e                           : PowerCC26XX_calibrateRCOSC.oem3 (.text:PowerCC26XX_initiateCalibration)
                             00005e0e   rf_singleMode_cc26xxware.aem3 : RFCC26XX_singleMode.oem3 (.text:ratChanFree)
                             000067f4                                 : RFCC26XX_singleMode.oem3 (.text:Q_push)
                             000068e8   drivers_cc26xxware.aem3 : PowerCC26XX.oem3 (.text:Power_releaseConstraint)
                             00006918                           : PowerCC26XX.oem3 (.text:Power_setConstraint)
                             00006bb4   rf_singleMode_cc26xxware.aem3 : RFCC26XX_singleMode.oem3 (.text:Q_end)
                             00006c04   drivers_cc26xxware.aem3 : List.oem3 (.text:List_put)
                             00006dc4                           : PowerCC26XX.oem3 (.text:Power_unregisterNotify)
                             000070f8   rf_singleMode_cc26xxware.aem3 : RFCC26XX_singleMode.oem3 (.text:Q_pop)
ti_sysbios_family_arm_m3_Hwi_disableFxn__E  $Tramp$TT$L$PI$$ti_sysbios_family_arm_m3_Hwi_disableFxn__E
   1001c149     00007750     00000836   rf_singleMode_cc26xxware.aem3 : RFCC26XX_singleMode.oem3 (.text:fsmActiveState)
                             000008c2                                 : RFCC26XX_singleMode.oem3 (.text:fsmActiveState)
                             000019a4                                 : RFCC26XX_singleMode.oem3 (.text:RF_postCmd)
                             00001a7e                                 : RFCC26XX_singleMode.oem3 (.text:RF_postCmd)
                             0000351c                                 : RFCC26XX_singleMode.oem3 (.text:RF_close)
                             000035fc   drivers_cc26xxware.aem3 : I2CCC26XX.oem3 (.text:I2CCC26XX_open)
                             00003b20                           : PINCC26XX.oem3 (.text:PINCC26XX_setIoCfg)
                             00003d1a                           : PowerCC26XX.oem3 (.text:Power_releaseDependency)
                             00003dee                           : PowerCC26XX.oem3 (.text:Power_setDependency)
                             00003fb6   rf_singleMode_cc26xxware.aem3 : RFCC26XX_singleMode.oem3 (.text:RF_open)
                             00004138   drivers_cc26xxware.aem3 : I2CCC26XX.oem3 (.text:I2CCC26XX_transfer)
                             000049da                           : I2CCC26XX.oem3 (.text:I2CCC26XX_cancel)
                             00004a60                           : PowerCC26XX.oem3 (.text:switchXOSCHFclockFunc)
                             00004c02   rf_singleMode_cc26xxware.aem3 : RFCC26XX_singleMode.oem3 (.text:swiFxnHw)
                             000050d0                                 : RFCC26XX_singleMode.oem3 (.text:decActiveClientCnt)
                             00005672                                 : RFCC26XX_singleMode.oem3 (.text:RF_getCurrentTime)
                             000057f4   drivers_cc26xxware.aem3 : I2CCC26XX.oem3 (.text:I2CCC26XX_close)
                             00005c8a                           : PowerCC26XX_calibrateRCOSC.oem3 (.text:PowerCC26XX_initiateCalibration)
                             00005dd0   rf_singleMode_cc26xxware.aem3 : RFCC26XX_singleMode.oem3 (.text:ratChanFree)
                             000067d6                                 : RFCC26XX_singleMode.oem3 (.text:Q_push)
                             000067de                                 : RFCC26XX_singleMode.oem3 (.text:Q_push)
                             000068c8   drivers_cc26xxware.aem3 : PowerCC26XX.oem3 (.text:Power_releaseConstraint)
                             000068f8                           : PowerCC26XX.oem3 (.text:Power_setConstraint)
                             00006b98   rf_singleMode_cc26xxware.aem3 : RFCC26XX_singleMode.oem3 (.text:Q_end)
                             00006db4   drivers_cc26xxware.aem3 : PowerCC26XX.oem3 (.text:Power_unregisterNotify)
                             000070ec   rf_singleMode_cc26xxware.aem3 : RFCC26XX_singleMode.oem3 (.text:Q_pop)
                             00007542   tirtosport.aem3 : HwiP_tirtos.oem3 (.text:HwiP_disable)

[62 trampolines]
[248 trampoline calls]


GLOBAL SYMBOLS: SORTED ALPHABETICALLY BY Name 

address   name                                                                      
-------   ----                                                                      
00009560  BoardGpioInitTable                                                        
0000435d  CalibrateParkingSensor                                                    
00002219  CheckParkingSensor                                                        
0000631d  DisableOtherSensors                                                       
00003b69  EasyLink_enableRxAddrFilter                                               
000009a5  EasyLink_init                                                             
00002389  EasyLink_receiveAsync                                                     
000041dd  EasyLink_setCtrl                                                          
00002bb9  EasyLink_transmit                                                         
00007543  HwiP_disable                                                              
UNDEFED   HwiP_restore                                                              
000049cd  I2CCC26XX_cancel                                                          
000057a9  I2CCC26XX_close                                                           
0000752b  I2CCC26XX_control                                                         
00009734  I2CCC26XX_fxnTable                                                        
000074d9  I2CCC26XX_init                                                            
000035ed  I2CCC26XX_open                                                            
00004119  I2CCC26XX_transfer                                                        
00007349  I2C_Params_init                                                           
000074e3  I2C_close                                                                 
000096ec  I2C_config                                                                
000097c4  I2C_defaultParams                                                         
00006611  I2C_init                                                                  
00006865  I2C_open                                                                  
000074ed  I2C_transfer                                                              
00007401  IsReportTime                                                              
000074f7  List_empty                                                                
00007547  List_head                                                                 
0000754b  List_next                                                                 
00006be5  List_put                                                                  
00006fad  List_remove                                                               
00006b45  NOROM_AONBatMonTemperatureGetDegC                                         
00007285  NOROM_AONRTCCurrent64BitValueGet                                          
00006fe1  NOROM_AONRTCCurrentCompareValueGet                                        
0000740d  NOROM_CPUcpsid                                                            
00007419  NOROM_CPUcpsie                                                            
00007531  NOROM_CPUdelay                                                            
00006125  NOROM_ChipInfo_GetChipFamily                                              
00005f61  NOROM_ChipInfo_GetChipType                                                
0000529d  NOROM_ChipInfo_GetHwRevision                                              
00006ff9  NOROM_ChipInfo_GetPackageType                                             
000063e9  NOROM_DDI16BitfieldRead                                                   
0000616d  NOROM_DDI16BitfieldWrite                                                  
000069e5  NOROM_DDI32RegWrite                                                       
00006ecd  NOROM_OSCClockSourceGet                                                   
00005fad  NOROM_OSCClockSourceSet                                                   
00005a55  NOROM_OSCHF_AttemptToSwitchToXosc                                         
00006761  NOROM_OSCHF_SwitchToRcOscTurnOffXosc                                      
00007011  NOROM_OSCHF_TurnOnXosc                                                    
000064a9  NOROM_OSC_HPOSCRelativeFrequencyOffsetGet                                 
000013af  NOROM_RFCAdi3VcoLdoVoltageMode                                            
00007029  NOROM_RFCCpeIntGetAndClear                                                
00006d51  NOROM_RFCDoorbellSendTo                                                   
000041db  NOROM_RFCRTrim                                                            
00006d71  NOROM_RFCRfTrimRead                                                       
00007359  NOROM_RFCRfTrimSet                                                        
000064e5  NOROM_RFCSynthPowerDown                                                   
00004e7d  NOROM_SetupAfterColdResetWakeupFromShutDownCfg1                           
000039a5  NOROM_SetupAfterColdResetWakeupFromShutDownCfg2                           
00002e31  NOROM_SetupAfterColdResetWakeupFromShutDownCfg3                           
00007041  NOROM_SetupGetTrimForAdcShModeEn                                          
00007059  NOROM_SetupGetTrimForAdcShVbufEn                                          
0000545d  NOROM_SetupGetTrimForAmpcompCtrl                                          
00007071  NOROM_SetupGetTrimForAmpcompTh1                                           
00006ee9  NOROM_SetupGetTrimForAmpcompTh2                                           
000055a1  NOROM_SetupGetTrimForAnabypassValue1                                      
00007089  NOROM_SetupGetTrimForDblrLoopFilterResetVoltage                           
00006a11  NOROM_SetupGetTrimForRadcExtCfg                                           
000070a1  NOROM_SetupGetTrimForRcOscLfIBiasTrim                                     
00006f05  NOROM_SetupGetTrimForRcOscLfRtuneCtuneTrim                                
00006d91  NOROM_SetupGetTrimForXoscHfCtl                                            
00007369  NOROM_SetupGetTrimForXoscHfFastStart                                      
00007379  NOROM_SetupGetTrimForXoscHfIbiastherm                                     
000070b9  NOROM_SetupGetTrimForXoscLfRegulatorAndCmirrwrRatio                       
00006895  NOROM_SetupSetAonRtcSubSecInc                                             
00005e21  NOROM_SetupSetCacheModeAccordingToCcfgSetting                             
00004585  NOROM_SetupTrimDevice                                                     
00005ab1  NOROM_SysCtrlAdjustRechargeAfterPowerDown                                 
000013b1  NOROM_SysCtrlSetRechargeBeforePowerDown                                   
00005609  NOROM_SysCtrl_DCDC_VoltageConditionalControl                              
00007299  NOROM_ThisCodeIsBuiltForCC26xxHwRev22AndLater_HaltIfViolated              
000073c9  NOROM_VIMSModeGet                                                         
00007513  NodeRadioTask_UnixTime                                                    
000044d5  NodeRadioTask_init                                                        
00004ef5  NodeRadioTask_sendParkingData                                             
000054c9  NodeTask_init                                                             
00006c0d  PINCC26XX_getPinCount                                                     
000097e0  PINCC26XX_hwAttrs                                                         
00006a3d  PINCC26XX_setMux                                                          
200016a8  PIN_HandleTable                                                           
20001c10  PIN_NumPins                                                               
00006e91  PIN_close                                                                 
000072ad  PIN_getOutputValue                                                        
00001d45  PIN_init                                                                  
00004939  PIN_open                                                                  
00005b0d  PIN_remove                                                                
00006795  PIN_setConfig                                                             
00006649  PIN_setInterrupt                                                          
00006521  PIN_setOutputValue                                                        
000058d5  PowerCC26XX_RCOSC_clockFunc                                               
00004fe5  PowerCC26XX_auxISR                                                        
00005535  PowerCC26XX_calibrate                                                     
000097b4  PowerCC26XX_config                                                        
00002095  PowerCC26XX_doCalibrate                                                   
00005c79  PowerCC26XX_initiateCalibration                                           
20001c38  PowerCC26XX_module                                                        
00003c41  PowerCC26XX_standbyPolicy                                                 
00007425  Power_getConstraintMask                                                   
00007431  Power_getDependencyCount                                                  
00006eaf  Power_getTransitionLatency                                                
000070d1  Power_idleFunc                                                            
00003089  Power_init                                                                
00006b6d  Power_registerNotify                                                      
000068c5  Power_releaseConstraint                                                   
00003d15  Power_releaseDependency                                                   
000068f5  Power_setConstraint                                                       
00003de9  Power_setDependency                                                       
00000f69  Power_sleep                                                               
00006db1  Power_unregisterNotify                                                    
000097e8  RFCC26XX_hwAttrs                                                          
000072c1  RF_Params_init                                                            
000034e5  RF_close                                                                  
20002094  RF_cmdFs                                                                  
200020ac  RF_cmdFs_preDef                                                           
20001fd8  RF_cmdPropRadioDivSetup                                                   
20001ff8  RF_cmdPropRadioSetup_2_4G_fsk                                             
20001f24  RF_cmdPropRxAdv_preDef                                                    
200020c4  RF_cmdPropTx                                                              
200020dc  RF_cmdPropTx_preDef                                                       
00005671  RF_getCurrentTime                                                         
00003f89  RF_open                                                                   
20001ed8  RF_pCmdFs_preDef                                                          
20001ec8  RF_pCmdPropRadioDivSetup_fsk                                              
20001ecc  RF_pCmdPropRadioDivSetup_lrm                                              
20001ed0  RF_pCmdPropRadioDivSetup_ook                                              
20001ec4  RF_pCmdPropRadioSetup_2_4G_fsk                                            
20001ee0  RF_pCmdPropRxAdv_preDef                                                   
20001edc  RF_pCmdPropTx_preDef                                                      
20001ed4  RF_pCmdRadioSetup_hsm                                                     
20001ee8  RF_pCmdRxHS                                                               
20001ee4  RF_pCmdTxHS                                                               
20001eb0  RF_pProp_2_4G_fsk                                                         
20001eb4  RF_pProp_fsk                                                              
20001ec0  RF_pProp_hsm                                                              
20001eb8  RF_pProp_lrm                                                              
20001ebc  RF_pProp_ook                                                              
00004c85  RF_pendCmd                                                                
00001999  RF_postCmd                                                                
2000216c  RF_prop                                                                   
2000217c  RF_prop_2_4G_fsk                                                          
000061fd  RF_runCmd                                                                 
00006361  ResetISR                                                                  
UNDEFED   SHT$$INIT_ARRAY$$Base                                                     
UNDEFED   SHT$$INIT_ARRAY$$Limit                                                    
00006bbd  SafeHapiVoid                                                              
00007101  SensorI2C_close                                                           
000072d5  SensorI2C_deselect                                                        
0000530d  SensorI2C_open                                                            
00006f59  SensorI2C_readReg                                                         
0000462d  SensorI2C_select                                                          
00005ff9  SensorI2C_write                                                           
00005cd1  SensorI2C_writeRead                                                       
00005871  SensorI2C_writeReg                                                        
00006245  SensorMpu9250_enable                                                      
000027c1  SensorMpu9250_magRead                                                     
0000537d  SensorMpu9250_magReset                                                    
00006fc7  SensorMpu9250_powerIsOn                                                   
00006c31  SensorMpu9250_powerOff                                                    
00006c55  SensorMpu9250_powerOn                                                     
00004d05  SensorMpu9250_reset                                                       
000056d9  SensorMpu9250_test                                                        
00006681  SensorOpt3001_enable                                                      
0000743d  SensorOpt3001_init                                                        
00005935  SensorTmp007_enable                                                       
00007501  SensorTmp007_init                                                         
00000000  __ASM__                                                                   
00000089  __ISA__                                                                   
0000009b  __PLAT__                                                                  
20005000  __STACK_END                                                               
00000300  __STACK_SIZE                                                              
000000c2  __TARG__                                                                  
00009b28  __TI_CINIT_Base                                                           
00009b88  __TI_CINIT_Limit                                                          
00009ae4  __TI_Handler_Table_Base                                                   
00009af0  __TI_Handler_Table_Limit                                                  
000046cd  __TI_auto_init                                                            
00005741  __TI_decompress_lzss                                                      
000073d7  __TI_decompress_none                                                      
ffffffff  __TI_pprof_out_hndl                                                       
ffffffff  __TI_prof_data_size                                                       
ffffffff  __TI_prof_data_start                                                      
00009800  __TI_static_base__                                                        
0000746d  __TI_zero_init                                                            
000000e7  __TRDR__                                                                  
00007337  __aeabi_idiv0                                                             
000073f3  __aeabi_ldiv0                                                             
00001191  __aeabi_ldivmod                                                           
00007149  __aeabi_lmul                                                              
00004e01  __aeabi_memclr                                                            
00004e01  __aeabi_memclr4                                                           
00004e01  __aeabi_memclr8                                                           
0000476d  __aeabi_memcpy                                                            
0000476d  __aeabi_memcpy4                                                           
0000476d  __aeabi_memcpy8                                                           
00004e03  __aeabi_memset                                                            
00004e03  __aeabi_memset4                                                           
00004e03  __aeabi_memset8                                                           
00006429  __aeabi_uidiv                                                             
00006429  __aeabi_uidivmod                                                          
000015b5  __aeabi_uldivmod                                                          
ffffffff  __binit__                                                                 
ffffffff  __c_args__                                                                
0001ffa8  __ccfg                                                                    
00002cf9  __localtime32                                                             
00000cc9  __mktime32                                                                
20004d00  __stack                                                                   
00007131  _args_main                                                                
00006361  _c_int00                                                                  
200021b8  _lock                                                                     
000072f7  _nop                                                                      
000072ef  _register_lock                                                            
000072e9  _register_unlock                                                          
2000218c  _tz                                                                       
200021bc  _unlock                                                                   
ffffffff  binit                                                                     
00006091  copy_in                                                                   
20001c35  driverlib_release_0_47020                                                 
00003eb9  getSleepValue                                                             
000096bc  i2cCC26xxHWAttrs                                                          
20001008  i2cCC26xxObjects                                                          
00002cf9  localtime                                                                 
000063a5  main                                                                      
20002240  main_func_sp                                                              
0000476d  memcpy                                                                    
00004e09  memset                                                                    
00000cc9  mktime                                                                    
20001b48  nodeEvent                                                                 
20001724  nodeRadioTask                                                             
20001774  nodeTask                                                                  
20001d48  pOverrides                                                                
20001db0  pOverrides_fsk                                                            
200021c0  parkingAddress                                                            
20002018  pinTable                                                                  
20001a78  radioAccessSem                                                            
20001b70  radioOperationEvent                                                       
20001a94  radioResultSem                                                            
00009628  resourceDB                                                                
2000210c  shape                                                                     
20002124  shape_preDef                                                              
200021c4  sleepDuration_Second                                                      
200001a4  ti_sysbios_BIOS_Module__state__V                                          
1001bc29  ti_sysbios_BIOS_RtsGateProxy_Handle__label__S                             
UNDEFED   ti_sysbios_BIOS_RtsGateProxy_Handle__label__S__mangled__                  
1001bab9  ti_sysbios_BIOS_RtsGateProxy_Object__delete__S                            
UNDEFED   ti_sysbios_BIOS_RtsGateProxy_Object__delete__S__mangled__                 
1001c179  ti_sysbios_BIOS_RtsGateProxy_Params__init__S                              
UNDEFED   ti_sysbios_BIOS_RtsGateProxy_Params__init__S__mangled__                   
1001c249  ti_sysbios_BIOS_RtsGateProxy_enter__E                                     
1001c24d  ti_sysbios_BIOS_RtsGateProxy_leave__E                                     
1001c275  ti_sysbios_BIOS_RtsGateProxy_query__E                                     
UNDEFED   ti_sysbios_BIOS_RtsGateProxy_query__E__mangled__                          
00006955  ti_sysbios_BIOS_atExitFunc__I                                             
000071c1  ti_sysbios_BIOS_exitFunc__I                                               
1001c035  ti_sysbios_BIOS_exit__E                                                   
1001bff9  ti_sysbios_BIOS_getCpuFreq__E                                             
0000755b  ti_sysbios_BIOS_linkedWithIncorrectBootLibrary__E                         
0000755d  ti_sysbios_BIOS_nullFunc__I                                               
00006cc1  ti_sysbios_BIOS_registerRTSLock__I                                        
00006ce5  ti_sysbios_BIOS_removeRTSLock__I                                          
00006e11  ti_sysbios_BIOS_rtsLock__I                                                
00007179  ti_sysbios_BIOS_rtsUnlock__I                                              
1001c045  ti_sysbios_BIOS_setThreadType__E                                          
00006985  ti_sysbios_BIOS_startFunc__I                                              
1001c055  ti_sysbios_BIOS_start__E                                                  
00004585  ti_sysbios_family_arm_cc26xx_Boot_trimDevice                              
200021c8  ti_sysbios_family_arm_cc26xx_Seconds_Module__state__V                     
000066b9  ti_sysbios_family_arm_cc26xx_Seconds_get__E                               
00006d09  ti_sysbios_family_arm_cc26xx_Seconds_set__E                               
00000502  ti_sysbios_family_arm_cc26xx_Timer_Module__id__C                          
1001bb49  ti_sysbios_family_arm_cc26xx_Timer_Module__startupDone__S                 
200001e4  ti_sysbios_family_arm_cc26xx_Timer_Module__state__V                       
1001ba71  ti_sysbios_family_arm_cc26xx_Timer_Module_startup__E                      
20001e68  ti_sysbios_family_arm_cc26xx_Timer_Object__table__V                       
00006e31  ti_sysbios_family_arm_cc26xx_Timer_dynamicStub__E                         
00007557  ti_sysbios_family_arm_cc26xx_Timer_getCount64__E                          
000066f1  ti_sysbios_family_arm_cc26xx_Timer_getCurrentTick__E                      
1001c251  ti_sysbios_family_arm_cc26xx_Timer_getExpiredTicks__E                     
00006d2d  ti_sysbios_family_arm_cc26xx_Timer_getMaxTicks__E                         
1001c255  ti_sysbios_family_arm_cc26xx_Timer_getPeriod__E                           
000067fd  ti_sysbios_family_arm_cc26xx_Timer_initDevice__I                          
1001a469  ti_sysbios_family_arm_cc26xx_Timer_periodicStub__E                        
1001b769  ti_sysbios_family_arm_cc26xx_Timer_postInit__I                            
00006831  ti_sysbios_family_arm_cc26xx_Timer_setNextTick__E                         
1001c259  ti_sysbios_family_arm_cc26xx_Timer_setPeriod__E                           
000069b5  ti_sysbios_family_arm_cc26xx_Timer_setThreshold__I                        
00005229  ti_sysbios_family_arm_cc26xx_Timer_start__E                               
00000484  ti_sysbios_family_arm_cc26xx_Timer_startupNeeded__C                       
1001b795  ti_sysbios_family_arm_cc26xx_Timer_startup__E                             
200001ec  ti_sysbios_family_arm_cc26xx_TimestampProvider_Module__state__V           
1001bb69  ti_sysbios_family_arm_cc26xx_TimestampProvider_Module_startup__E          
000073e5  ti_sysbios_family_arm_cc26xx_TimestampProvider_get32__E                   
1001b9d1  ti_sysbios_family_arm_cc26xx_TimestampProvider_get64__E                   
1001c12f  ti_sysbios_family_arm_cc26xx_TimestampProvider_getFreq__E                 
00000504  ti_sysbios_family_arm_cc26xx_TimestampProvider_useClockTimer__C           
00000488  ti_sysbios_family_arm_m3_Hwi_E_alreadyDefined__C                          
0000048c  ti_sysbios_family_arm_m3_Hwi_E_hwiLimitExceeded__C                        
1001aed1  ti_sysbios_family_arm_m3_Hwi_Instance_finalize__E                         
1001a3c9  ti_sysbios_family_arm_m3_Hwi_Instance_init__E                             
2000223a  ti_sysbios_family_arm_m3_Hwi_Module_State_0_excActive__A                  
20002244  ti_sysbios_family_arm_m3_Hwi_Module_State_0_excContext__A                 
20002248  ti_sysbios_family_arm_m3_Hwi_Module_State_0_excStack__A                   
00000506  ti_sysbios_family_arm_m3_Hwi_Module__id__C                                
200021d0  ti_sysbios_family_arm_m3_Hwi_Module__root__V                              
1001bb89  ti_sysbios_family_arm_m3_Hwi_Module__startupDone__S                       
20000144  ti_sysbios_family_arm_m3_Hwi_Module__state__V                             
1001b1c1  ti_sysbios_family_arm_m3_Hwi_Module_startup__E                            
00000490  ti_sysbios_family_arm_m3_Hwi_NUM_INTERRUPTS__C                            
000002d0  ti_sysbios_family_arm_m3_Hwi_Object__DESC__C                              
00000170  ti_sysbios_family_arm_m3_Hwi_Object__PARAMS__C                            
00000494  ti_sysbios_family_arm_m3_Hwi_Object__count__C                             
1001aab1  ti_sysbios_family_arm_m3_Hwi_Object__create__S                            
1001bba9  ti_sysbios_family_arm_m3_Hwi_Object__delete__S                            
1001be69  ti_sysbios_family_arm_m3_Hwi_Object__destruct__S                          
1001b7c1  ti_sysbios_family_arm_m3_Hwi_Object__get__S                               
00000498  ti_sysbios_family_arm_m3_Hwi_Object__table__C                             
2000213c  ti_sysbios_family_arm_m3_Hwi_Object__table__V                             
1001c13d  ti_sysbios_family_arm_m3_Hwi_Params__init__S                              
0000049c  ti_sysbios_family_arm_m3_Hwi_ccr__C                                       
1001af29  ti_sysbios_family_arm_m3_Hwi_construct                                    
1001ab15  ti_sysbios_family_arm_m3_Hwi_create                                       
1001c25d  ti_sysbios_family_arm_m3_Hwi_delete                                       
1001c261  ti_sysbios_family_arm_m3_Hwi_destruct                                     
1001c149  ti_sysbios_family_arm_m3_Hwi_disableFxn__E                                
1001b299  ti_sysbios_family_arm_m3_Hwi_disableInterrupt__E                          
1001aa49  ti_sysbios_family_arm_m3_Hwi_dispatchC__I                                 
200012c8  ti_sysbios_family_arm_m3_Hwi_dispatchTable                                
1001c89d  ti_sysbios_family_arm_m3_Hwi_dispatch__I                                  
1001c1fb  ti_sysbios_family_arm_m3_Hwi_doSwiRestore__I                              
1001c213  ti_sysbios_family_arm_m3_Hwi_doTaskRestore__I                             
1001c155  ti_sysbios_family_arm_m3_Hwi_enableFxn__E                                 
1001b2dd  ti_sysbios_family_arm_m3_Hwi_enableInterrupt__E                           
1001ca01  ti_sysbios_family_arm_m3_Hwi_excHandlerAsm__I                             
000004a0  ti_sysbios_family_arm_m3_Hwi_excHandlerFunc__C                            
1001bbc9  ti_sysbios_family_arm_m3_Hwi_excHandler__I                                
1001b465  ti_sysbios_family_arm_m3_Hwi_getStackInfo__E                              
1001a699  ti_sysbios_family_arm_m3_Hwi_initNVIC__E                                  
1001c9b9  ti_sysbios_family_arm_m3_Hwi_initStacks__E                                
000004a4  ti_sysbios_family_arm_m3_Hwi_nullIsrFunc__C                               
000004a8  ti_sysbios_family_arm_m3_Hwi_numSparseInterrupts__C                       
e000e000  ti_sysbios_family_arm_m3_Hwi_nvic                                         
1001ca3f  ti_sysbios_family_arm_m3_Hwi_pendSV__I                                    
1001c065  ti_sysbios_family_arm_m3_Hwi_plug__E                                      
1001a319  ti_sysbios_family_arm_m3_Hwi_postInit__I                                  
000073b9  ti_sysbios_family_arm_m3_Hwi_post__E                                      
000004ac  ti_sysbios_family_arm_m3_Hwi_priGroup__C                                  
20000000  ti_sysbios_family_arm_m3_Hwi_ramVectors                                   
00000000  ti_sysbios_family_arm_m3_Hwi_resetVectors                                 
1001c219  ti_sysbios_family_arm_m3_Hwi_restoreFxn__E                                
1001ca57  ti_sysbios_family_arm_m3_Hwi_return                                       
0000753d  ti_sysbios_family_arm_m3_Hwi_setFunc__E                                   
1001be85  ti_sysbios_family_arm_m3_Hwi_setPriority__E                               
1001c203  ti_sysbios_family_arm_m3_Hwi_startup__E                                   
1001c00d  ti_sysbios_family_arm_m3_Hwi_switchFromBootStack__E                       
1001c265  ti_sysbios_family_arm_m3_TaskSupport_Module__startupDone__S               
1001c96d  ti_sysbios_family_arm_m3_TaskSupport_buildTaskStack                       
1001c161  ti_sysbios_family_arm_m3_TaskSupport_getStackAlignment__E                 
1001ca59  ti_sysbios_family_arm_m3_TaskSupport_glue                                 
000004b0  ti_sysbios_family_arm_m3_TaskSupport_stackAlignment__C                    
1001b49d  ti_sysbios_family_arm_m3_TaskSupport_start__E                             
1001ca69  ti_sysbios_family_arm_m3_TaskSupport_swap__E                              
1001ca21  ti_sysbios_family_xxx_Hwi_switchAndRunFunc                                
1001bbe9  ti_sysbios_gates_GateHwi_Handle__label__S                                 
1001b463  ti_sysbios_gates_GateHwi_Instance_init__E                                 
0000021c  ti_sysbios_gates_GateHwi_Module__FXNS__C                                  
00000508  ti_sysbios_gates_GateHwi_Module__id__C                                    
200021d8  ti_sysbios_gates_GateHwi_Module__root__V                                  
000002f0  ti_sysbios_gates_GateHwi_Object__DESC__C                                  
00000430  ti_sysbios_gates_GateHwi_Object__PARAMS__C                                
1001ba95  ti_sysbios_gates_GateHwi_Object__create__S                                
1001bc09  ti_sysbios_gates_GateHwi_Object__delete__S                                
1001c16d  ti_sysbios_gates_GateHwi_enter__E                                         
1001c21f  ti_sysbios_gates_GateHwi_leave__E                                         
1001c269  ti_sysbios_gates_GateHwi_query__E                                         
1001bc29  ti_sysbios_gates_GateMutex_Handle__label__S                               
000005cc  ti_sysbios_gates_GateMutex_Instance_State_sem__O                          
1001c075  ti_sysbios_gates_GateMutex_Instance_finalize__E                           
1001bea1  ti_sysbios_gates_GateMutex_Instance_init__E                               
00000240  ti_sysbios_gates_GateMutex_Module__FXNS__C                                
0000050a  ti_sysbios_gates_GateMutex_Module__id__C                                  
200021e0  ti_sysbios_gates_GateMutex_Module__root__V                                
00000310  ti_sysbios_gates_GateMutex_Object__DESC__C                                
00000448  ti_sysbios_gates_GateMutex_Object__PARAMS__C                              
1001b649  ti_sysbios_gates_GateMutex_Object__create__S                              
1001bab9  ti_sysbios_gates_GateMutex_Object__delete__S                              
1001bc49  ti_sysbios_gates_GateMutex_Object__destruct__S                            
20001eec  ti_sysbios_gates_GateMutex_Object__table__V                               
1001c179  ti_sysbios_gates_GateMutex_Params__init__S                                
1001b7ed  ti_sysbios_gates_GateMutex_construct                                      
1001b679  ti_sysbios_gates_GateMutex_create                                         
1001c26d  ti_sysbios_gates_GateMutex_delete                                         
1001c271  ti_sysbios_gates_GateMutex_destruct                                       
1001b6a9  ti_sysbios_gates_GateMutex_enter__E                                       
1001bf9d  ti_sysbios_gates_GateMutex_leave__E                                       
1001c275  ti_sysbios_gates_GateMutex_query__E                                       
1001c279  ti_sysbios_hal_Hwi_HwiProxy_Module__startupDone__S                        
UNDEFED   ti_sysbios_hal_Hwi_HwiProxy_Module__startupDone__S__mangled__             
1001c085  ti_sysbios_hal_Hwi_HwiProxy_Object__create__S                             
1001bba9  ti_sysbios_hal_Hwi_HwiProxy_Object__delete__S                             
UNDEFED   ti_sysbios_hal_Hwi_HwiProxy_Object__delete__S__mangled__                  
1001c13d  ti_sysbios_hal_Hwi_HwiProxy_Params__init__S                               
UNDEFED   ti_sysbios_hal_Hwi_HwiProxy_Params__init__S__mangled__                    
1001be49  ti_sysbios_hal_Hwi_HwiProxy_create                                        
1001c27d  ti_sysbios_hal_Hwi_HwiProxy_delete                                        
1001c281  ti_sysbios_hal_Hwi_HwiProxy_disableInterrupt__E                           
UNDEFED   ti_sysbios_hal_Hwi_HwiProxy_disableInterrupt__E__mangled__                
1001c285  ti_sysbios_hal_Hwi_HwiProxy_enableInterrupt__E                            
UNDEFED   ti_sysbios_hal_Hwi_HwiProxy_enableInterrupt__E__mangled__                 
1001c289  ti_sysbios_hal_Hwi_HwiProxy_getStackInfo__E                               
UNDEFED   ti_sysbios_hal_Hwi_HwiProxy_getStackInfo__E__mangled__                    
000073b9  ti_sysbios_hal_Hwi_HwiProxy_post__E                                       
1001c28d  ti_sysbios_hal_Hwi_HwiProxy_startup__E                                    
UNDEFED   ti_sysbios_hal_Hwi_HwiProxy_startup__E__mangled__                         
1001c291  ti_sysbios_hal_Hwi_HwiProxy_switchFromBootStack__E                        
UNDEFED   ti_sysbios_hal_Hwi_HwiProxy_switchFromBootStack__E__mangled__             
1001c1f1  ti_sysbios_hal_Hwi_Instance_finalize__E                                   
1001b9f9  ti_sysbios_hal_Hwi_Instance_init__E                                       
200021e8  ti_sysbios_hal_Hwi_Module__root__V                                        
1001c021  ti_sysbios_hal_Hwi_Module_startup__E                                      
00000330  ti_sysbios_hal_Hwi_Object__DESC__C                                        
000001a0  ti_sysbios_hal_Hwi_Object__PARAMS__C                                      
1001bc69  ti_sysbios_hal_Hwi_Object__delete__S                                      
1001ab79  ti_sysbios_hal_Hwi_create                                                 
1001c295  ti_sysbios_hal_Hwi_delete                                                 
1001c281  ti_sysbios_hal_Hwi_disableInterrupt__E                                    
UNDEFED   ti_sysbios_hal_Hwi_disableInterrupt__E                                    
1001c285  ti_sysbios_hal_Hwi_enableInterrupt__E                                     
UNDEFED   ti_sysbios_hal_Hwi_enableInterrupt__E                                     
1001c289  ti_sysbios_hal_Hwi_getStackInfo__E                                        
UNDEFED   ti_sysbios_hal_Hwi_getStackInfo__E                                        
1001b819  ti_sysbios_hal_Hwi_initStack                                              
000073b9  ti_sysbios_hal_Hwi_post__E                                                
1001c28d  ti_sysbios_hal_Hwi_startup__E                                             
UNDEFED   ti_sysbios_hal_Hwi_startup__E                                             
1001c299  ti_sysbios_hal_Hwi_switchFromBootStack__E                                 
UNDEFED   ti_sysbios_hal_Hwi_switchFromBootStack__E                                 
000066b9  ti_sysbios_hal_Seconds_SecondsProxy_get__E                                
00006d09  ti_sysbios_hal_Seconds_SecondsProxy_set__E                                
000004b4  ti_sysbios_heaps_HeapMem_E_memory__C                                      
1001bc89  ti_sysbios_heaps_HeapMem_Handle__label__S                                 
20000a08  ti_sysbios_heaps_HeapMem_Instance_State_0_buf__A                          
1001b4d5  ti_sysbios_heaps_HeapMem_Instance_init__E                                 
1001bc29  ti_sysbios_heaps_HeapMem_Module_GateProxy_Handle__label__S                
UNDEFED   ti_sysbios_heaps_HeapMem_Module_GateProxy_Handle__label__S__mangled__     
1001bab9  ti_sysbios_heaps_HeapMem_Module_GateProxy_Object__delete__S               
UNDEFED   ti_sysbios_heaps_HeapMem_Module_GateProxy_Object__delete__S__mangled__    
1001c179  ti_sysbios_heaps_HeapMem_Module_GateProxy_Params__init__S                 
UNDEFED   ti_sysbios_heaps_HeapMem_Module_GateProxy_Params__init__S__mangled__      
1001c29d  ti_sysbios_heaps_HeapMem_Module_GateProxy_enter__E                        
1001c2a1  ti_sysbios_heaps_HeapMem_Module_GateProxy_leave__E                        
1001c275  ti_sysbios_heaps_HeapMem_Module_GateProxy_query__E                        
UNDEFED   ti_sysbios_heaps_HeapMem_Module_GateProxy_query__E__mangled__             
000001cc  ti_sysbios_heaps_HeapMem_Module__FXNS__C                                  
000004b8  ti_sysbios_heaps_HeapMem_Module__gateObj__C                               
0000050c  ti_sysbios_heaps_HeapMem_Module__id__C                                    
200021f0  ti_sysbios_heaps_HeapMem_Module__root__V                                  
00000350  ti_sysbios_heaps_HeapMem_Object__DESC__C                                  
00000264  ti_sysbios_heaps_HeapMem_Object__PARAMS__C                                
000004bc  ti_sysbios_heaps_HeapMem_Object__count__C                                 
1001b845  ti_sysbios_heaps_HeapMem_Object__create__S                                
1001bca9  ti_sysbios_heaps_HeapMem_Object__delete__S                                
1001b871  ti_sysbios_heaps_HeapMem_Object__get__S                                   
000004c0  ti_sysbios_heaps_HeapMem_Object__table__C                                 
20002154  ti_sysbios_heaps_HeapMem_Object__table__V                                 
1001a199  ti_sysbios_heaps_HeapMem_alloc__E                                         
1001a795  ti_sysbios_heaps_HeapMem_free__E                                          
1001b209  ti_sysbios_heaps_HeapMem_getStats__E                                      
1001b545  ti_sysbios_heaps_HeapMem_init__I                                          
1001c2a5  ti_sysbios_heaps_HeapMem_isBlocking__E                                    
000004c4  ti_sysbios_heaps_HeapMem_reqAlign__C                                      
1001c105  ti_sysbios_heaps_HeapMem_restore__E                                       
1001bfcd  ti_sysbios_knl_Clock_Instance_finalize__E                                 
1001b50d  ti_sysbios_knl_Clock_Instance_init__E                                     
000005d0  ti_sysbios_knl_Clock_Module_State_clockQ__O                               
200021f8  ti_sysbios_knl_Clock_Module__root__V                                      
20000178  ti_sysbios_knl_Clock_Module__state__V                                     
1001bcc9  ti_sysbios_knl_Clock_Module_startup__E                                    
00000370  ti_sysbios_knl_Clock_Object__DESC__C                                      
00000288  ti_sysbios_knl_Clock_Object__PARAMS__C                                    
1001badd  ti_sysbios_knl_Clock_Object__delete__S                                    
1001bce9  ti_sysbios_knl_Clock_Object__destruct__S                                  
20002038  ti_sysbios_knl_Clock_Object__table__V                                     
1001c185  ti_sysbios_knl_Clock_Params__init__S                                      
1001c2a9  ti_sysbios_knl_Clock_TimerProxy_Module__startupDone__S                    
UNDEFED   ti_sysbios_knl_Clock_TimerProxy_Module__startupDone__S__mangled__         
1001c095  ti_sysbios_knl_Clock_TimerProxy_getCurrentTick__E                         
1001c2ad  ti_sysbios_knl_Clock_TimerProxy_getExpiredTicks__E                        
1001c0a5  ti_sysbios_knl_Clock_TimerProxy_getMaxTicks__E                            
1001c2b1  ti_sysbios_knl_Clock_TimerProxy_getPeriod__E                              
1001c0b5  ti_sysbios_knl_Clock_TimerProxy_setNextTick__E                            
1001b795  ti_sysbios_knl_Clock_TimerProxy_startup__E                                
UNDEFED   ti_sysbios_knl_Clock_TimerProxy_startup__E__mangled__                     
1001ba21  ti_sysbios_knl_Clock_addI__E                                              
1001b579  ti_sysbios_knl_Clock_construct                                            
1001b3ed  ti_sysbios_knl_Clock_create                                               
1001c2b5  ti_sysbios_knl_Clock_delete                                               
1001c2b9  ti_sysbios_knl_Clock_destruct                                             
000072fd  ti_sysbios_knl_Clock_doTick__I                                            
00006ac1  ti_sysbios_knl_Clock_getTicksUntilInterrupt__E                            
1001b6d9  ti_sysbios_knl_Clock_getTicks__E                                          
1001c191  ti_sysbios_knl_Clock_getTimerHandle__E                                    
1001be67  ti_sysbios_knl_Clock_logTick__E                                           
1001c2bd  ti_sysbios_knl_Clock_removeI__E                                           
1001bebd  ti_sysbios_knl_Clock_scheduleNextTick__E                                  
000004c8  ti_sysbios_knl_Clock_serviceMargin__C                                     
1001c2c1  ti_sysbios_knl_Clock_setTimeout__E                                        
1001a719  ti_sysbios_knl_Clock_startI__E                                            
1001bfe3  ti_sysbios_knl_Clock_start__E                                             
00006e51  ti_sysbios_knl_Clock_stop__E                                              
00000510  ti_sysbios_knl_Clock_tickMode__C                                          
000097f0  ti_sysbios_knl_Clock_tickPeriod__C                                        
000097f4  ti_sysbios_knl_Clock_triggerClock__C                                      
0000755f  ti_sysbios_knl_Clock_triggerFunc__I                                       
1001a80d  ti_sysbios_knl_Clock_walkQueueDynamic__E                                  
000048a1  ti_sysbios_knl_Clock_workFuncDynamic__E                                   
1001a885  ti_sysbios_knl_Clock_workFunc__E                                          
000097f8  ti_sysbios_knl_Event_Instance_State_pendQ__O                              
00007311  ti_sysbios_knl_Event_Instance_init__E                                     
20002200  ti_sysbios_knl_Event_Module__root__V                                      
00009754  ti_sysbios_knl_Event_Object__DESC__C                                      
00009774  ti_sysbios_knl_Event_Object__PARAMS__C                                    
00007479  ti_sysbios_knl_Event_Params__init__S                                      
00006e71  ti_sysbios_knl_Event_checkEvents__I                                       
00006aed  ti_sysbios_knl_Event_construct                                            
00006b19  ti_sysbios_knl_Event_pendTimeout__I                                       
000038bd  ti_sysbios_knl_Event_pend__E                                              
000053ed  ti_sysbios_knl_Event_post__E                                              
000097fc  ti_sysbios_knl_Idle_funcList__A                                           
00000478  ti_sysbios_knl_Idle_funcList__C                                           
1001c20b  ti_sysbios_knl_Idle_loop__E                                               
1001bd09  ti_sysbios_knl_Idle_run__E                                                
000005d4  ti_sysbios_knl_Mailbox_Instance_State_dataQue__O                          
000005d8  ti_sysbios_knl_Mailbox_Instance_State_dataSem__O                          
000005dc  ti_sysbios_knl_Mailbox_Instance_State_freeQue__O                          
000005e0  ti_sysbios_knl_Mailbox_Instance_State_freeSem__O                          
1001a9dd  ti_sysbios_knl_Mailbox_Instance_finalize__E                               
1001a001  ti_sysbios_knl_Mailbox_Instance_init__E                                   
20002208  ti_sysbios_knl_Mailbox_Module__root__V                                    
1001b251  ti_sysbios_knl_Mailbox_Module_startup__E                                  
00000390  ti_sysbios_knl_Mailbox_Object__DESC__C                                    
0000013c  ti_sysbios_knl_Mailbox_Object__PARAMS__C                                  
000004cc  ti_sysbios_knl_Mailbox_Object__count__C                                   
1001bd29  ti_sysbios_knl_Mailbox_Object__delete__S                                  
1001bed9  ti_sysbios_knl_Mailbox_Object__destruct__S                                
1001b89d  ti_sysbios_knl_Mailbox_Object__get__S                                     
000004d0  ti_sysbios_knl_Mailbox_Object__table__C                                   
1001c19d  ti_sysbios_knl_Mailbox_Params__init__S                                    
1001af81  ti_sysbios_knl_Mailbox_construct                                          
1001abdd  ti_sysbios_knl_Mailbox_create                                             
1001c2c5  ti_sysbios_knl_Mailbox_delete                                             
1001c2c9  ti_sysbios_knl_Mailbox_destruct                                           
1001a8fd  ti_sysbios_knl_Mailbox_pend__E                                            
1001b8c9  ti_sysbios_knl_Mailbox_postInit__I                                        
1001a591  ti_sysbios_knl_Mailbox_post__E                                            
1001c22b  ti_sysbios_knl_Queue_Instance_init__E                                     
20002210  ti_sysbios_knl_Queue_Module__root__V                                      
000003b0  ti_sysbios_knl_Queue_Object__DESC__C                                      
00000460  ti_sysbios_knl_Queue_Object__PARAMS__C                                    
000004d4  ti_sysbios_knl_Queue_Object__count__C                                     
1001bd49  ti_sysbios_knl_Queue_Object__delete__S                                    
1001bef5  ti_sysbios_knl_Queue_Object__destruct__S                                  
1001bd69  ti_sysbios_knl_Queue_Object__get__S                                       
000004d8  ti_sysbios_knl_Queue_Object__table__C                                     
1001b8f5  ti_sysbios_knl_Queue_construct                                            
1001b921  ti_sysbios_knl_Queue_create                                               
1001c2cd  ti_sysbios_knl_Queue_delete                                               
1001c1a9  ti_sysbios_knl_Queue_dequeue__E                                           
1001c2d1  ti_sysbios_knl_Queue_destruct                                             
1001c231  ti_sysbios_knl_Queue_elemClear__E                                         
1001c113  ti_sysbios_knl_Queue_empty__E                                             
1001c1b5  ti_sysbios_knl_Queue_enqueue__E                                           
1001bf11  ti_sysbios_knl_Queue_get__E                                               
1001c2d5  ti_sysbios_knl_Queue_head__E                                              
1001c2d9  ti_sysbios_knl_Queue_next__E                                              
1001bf2d  ti_sysbios_knl_Queue_put__E                                               
1001c121  ti_sysbios_knl_Queue_remove__E                                            
000005e4  ti_sysbios_knl_Semaphore_Instance_State_pendQ__O                          
1001c0c5  ti_sysbios_knl_Semaphore_Instance_finalize__E                             
1001bb01  ti_sysbios_knl_Semaphore_Instance_init__E                                 
20002218  ti_sysbios_knl_Semaphore_Module__root__V                                  
000003d0  ti_sysbios_knl_Semaphore_Object__DESC__C                                  
000002ac  ti_sysbios_knl_Semaphore_Object__PARAMS__C                                
1001bb25  ti_sysbios_knl_Semaphore_Object__delete__S                                
1001bd89  ti_sysbios_knl_Semaphore_Object__destruct__S                              
1001c1c1  ti_sysbios_knl_Semaphore_Params__init__S                                  
1001b709  ti_sysbios_knl_Semaphore_construct                                        
1001b5ad  ti_sysbios_knl_Semaphore_create                                           
1001c2dd  ti_sysbios_knl_Semaphore_delete                                           
1001c2e1  ti_sysbios_knl_Semaphore_destruct                                         
1001b94d  ti_sysbios_knl_Semaphore_pendTimeout__I                                   
1001a0cd  ti_sysbios_knl_Semaphore_pend__E                                          
1001ac41  ti_sysbios_knl_Semaphore_post__E                                          
1001bf9b  ti_sysbios_knl_Swi_Instance_finalize__E                                   
1001aca5  ti_sysbios_knl_Swi_Instance_init__E                                       
20001f54  ti_sysbios_knl_Swi_Module_State_0_readyQ__A                               
20002220  ti_sysbios_knl_Swi_Module__root__V                                        
200001c8  ti_sysbios_knl_Swi_Module__state__V                                       
1001c237  ti_sysbios_knl_Swi_Module_startup__E                                      
000003f0  ti_sysbios_knl_Swi_Object__DESC__C                                        
000001f4  ti_sysbios_knl_Swi_Object__PARAMS__C                                      
000004dc  ti_sysbios_knl_Swi_Object__count__C                                       
1001bda9  ti_sysbios_knl_Swi_Object__delete__S                                      
1001bf49  ti_sysbios_knl_Swi_Object__destruct__S                                    
1001b979  ti_sysbios_knl_Swi_Object__get__S                                         
000004e0  ti_sysbios_knl_Swi_Object__table__C                                       
20001f84  ti_sysbios_knl_Swi_Object__table__V                                       
1001c1cd  ti_sysbios_knl_Swi_Params__init__S                                        
1001b085  ti_sysbios_knl_Swi_construct                                              
1001ad05  ti_sysbios_knl_Swi_create                                                 
1001c2e5  ti_sysbios_knl_Swi_delete                                                 
1001c2e9  ti_sysbios_knl_Swi_destruct                                               
1001c0d5  ti_sysbios_knl_Swi_disable__E                                             
1001c0e5  ti_sysbios_knl_Swi_enabled__E                                             
000074b5  ti_sysbios_knl_Swi_getTrigger__E                                          
000004e4  ti_sysbios_knl_Swi_numPriorities__C                                       
00007191  ti_sysbios_knl_Swi_or__E                                                  
1001c2ed  ti_sysbios_knl_Swi_postInit__I                                            
1001b321  ti_sysbios_knl_Swi_post__E                                                
1001ad61  ti_sysbios_knl_Swi_restoreHwi__E                                          
1001b5e1  ti_sysbios_knl_Swi_restore__E                                             
1001b0d5  ti_sysbios_knl_Swi_runLoop__I                                             
1001afd9  ti_sysbios_knl_Swi_run__I                                                 
1001b031  ti_sysbios_knl_Swi_schedule__I                                            
1001c23d  ti_sysbios_knl_Swi_startup__E                                             
20000e08  ti_sysbios_knl_Task_Instance_State_0_stack__A                             
1001a4fd  ti_sysbios_knl_Task_Instance_finalize__E                                  
1001a25d  ti_sysbios_knl_Task_Instance_init__E                                      
2000224c  ti_sysbios_knl_Task_Module_State_0_idleTask__A                            
20002058  ti_sysbios_knl_Task_Module_State_0_readyQ__A                              
000005e8  ti_sysbios_knl_Task_Module_State_inactiveQ__O                             
20002228  ti_sysbios_knl_Task_Module__root__V                                       
20000100  ti_sysbios_knl_Task_Module__state__V                                      
1001adbd  ti_sysbios_knl_Task_Module_startup__E                                     
00000410  ti_sysbios_knl_Task_Object__DESC__C                                       
00000100  ti_sysbios_knl_Task_Object__PARAMS__C                                     
000004e8  ti_sysbios_knl_Task_Object__count__C                                      
1001bdc9  ti_sysbios_knl_Task_Object__delete__S                                     
1001bf65  ti_sysbios_knl_Task_Object__destruct__S                                   
1001bde9  ti_sysbios_knl_Task_Object__get__S                                        
000004ec  ti_sysbios_knl_Task_Object__table__C                                      
20001e18  ti_sysbios_knl_Task_Object__table__V                                      
1001c1d9  ti_sysbios_knl_Task_Params__init__S                                       
1001c2f1  ti_sysbios_knl_Task_SupportProxy_Module__startupDone__S                   
UNDEFED   ti_sysbios_knl_Task_SupportProxy_Module__startupDone__S__mangled__        
1001c2f5  ti_sysbios_knl_Task_SupportProxy_getStackAlignment__E                     
UNDEFED   ti_sysbios_knl_Task_SupportProxy_getStackAlignment__E__mangled__          
1001c2f9  ti_sysbios_knl_Task_SupportProxy_start__E                                 
UNDEFED   ti_sysbios_knl_Task_SupportProxy_start__E__mangled__                      
1001c2fd  ti_sysbios_knl_Task_SupportProxy_swap__E                                  
UNDEFED   ti_sysbios_knl_Task_SupportProxy_swap__E__mangled__                       
000004f0  ti_sysbios_knl_Task_allBlockedFunc__C                                     
1001b365  ti_sysbios_knl_Task_allBlockedFunction__I                                 
1001b615  ti_sysbios_knl_Task_blockI__E                                             
1001b125  ti_sysbios_knl_Task_construct                                             
1001ae19  ti_sysbios_knl_Task_create                                                
000004f4  ti_sysbios_knl_Task_defaultStackHeap__C                                   
000004f8  ti_sysbios_knl_Task_defaultStackSize__C                                   
1001c301  ti_sysbios_knl_Task_delete                                                
1001c305  ti_sysbios_knl_Task_destruct                                              
1001c0f5  ti_sysbios_knl_Task_disable__E                                            
1001c243  ti_sysbios_knl_Task_enable__E                                             
1001be09  ti_sysbios_knl_Task_enter__I                                              
1001b429  ti_sysbios_knl_Task_exit__E                                               
0000050e  ti_sysbios_knl_Task_initStackFlag__C                                      
000004fc  ti_sysbios_knl_Task_numConstructedTasks__C                                
1001a615  ti_sysbios_knl_Task_postInit__I                                           
1001b739  ti_sysbios_knl_Task_processVitalTaskFlag__I                               
1001be29  ti_sysbios_knl_Task_restoreHwi__E                                         
1001ba49  ti_sysbios_knl_Task_restore__E                                            
1001b175  ti_sysbios_knl_Task_schedule__I                                           
1001c1e5  ti_sysbios_knl_Task_self__E                                               
1001bf81  ti_sysbios_knl_Task_sleepTimeout__I                                       
1001a96d  ti_sysbios_knl_Task_sleep__E                                              
1001ae75  ti_sysbios_knl_Task_startCore__E                                          
1001c309  ti_sysbios_knl_Task_startup__E                                            
1001ca71  ti_sysbios_knl_Task_swapReturn                                            
1001b9a5  ti_sysbios_knl_Task_unblockI__E                                           
1001bfb5  ti_sysbios_knl_Task_unblock__E                                            
1001b3a9  ti_sysbios_knl_Task_yield__E                                              
00000590  ti_sysbios_rom_ROM_AONRTCChannelEnable                                    
00000594  ti_sysbios_rom_ROM_AONRTCCompareValueSet                                  
00000598  ti_sysbios_rom_ROM_AONRTCCurrentCompareValueGet                           
0000059c  ti_sysbios_rom_ROM_AONRTCEventClear                                       
000005a0  ti_sysbios_rom_ROM_ti_sysbios_family_arm_cc26xx_Timer_getCount64__E       
000005a4  ti_sysbios_rom_ROM_ti_sysbios_family_arm_cc26xx_Timer_getCurrentTick__E   
000005a8  ti_sysbios_rom_ROM_ti_sysbios_family_arm_cc26xx_Timer_getMaxTicks__E      
000005ac  ti_sysbios_rom_ROM_ti_sysbios_family_arm_cc26xx_Timer_initDevice__I       
000005b0  ti_sysbios_rom_ROM_ti_sysbios_family_arm_cc26xx_Timer_setNextTick__E      
000005b4  ti_sysbios_rom_ROM_ti_sysbios_family_arm_cc26xx_Timer_setThreshold__I     
000005b8  ti_sysbios_rom_ROM_ti_sysbios_family_arm_cc26xx_Timer_start__E            
000005bc  ti_sysbios_rom_ROM_ti_sysbios_family_arm_cc26xx_TimestampProvider_get32__E
000005c0  ti_sysbios_rom_ROM_xdc_runtime_Startup_getState__I                        
000005c4  ti_sysbios_rom_ROM_xdc_runtime_System_SupportProxy_abort__E               
000005c8  ti_sysbios_rom_ROM_xdc_runtime_System_SupportProxy_exit__E                
00007561  ti_sysbios_rom_cortexm_cc26xx_CC26xx_badRomRevision__E                    
000071a9  ti_sysbios_rom_cortexm_cc26xx_CC26xx_checkRevision__E                     
1001ca9b  ti_sysbios_rom_cortexm_cc26xx_CC26xx_getRevision__E                       
00000524  xdc_runtime_Assert_E_assertFailed__C                                      
1001c5a9  xdc_runtime_Assert_raise__I                                               
1001c6ed  xdc_runtime_Core_assignLabel__I                                           
1001c5f1  xdc_runtime_Core_assignParams__I                                          
1001c639  xdc_runtime_Core_constructObject__I                                       
1001c405  xdc_runtime_Core_createObject__I                                          
1001c4f9  xdc_runtime_Core_deleteObject__I                                          
1001c7a1  xdc_runtime_Core_destructObject__I                                        
00000528  xdc_runtime_Error_E_memory__C                                             
1001c7b9  xdc_runtime_Error_check__E                                                
1001c841  xdc_runtime_Error_init__E                                                 
0000052c  xdc_runtime_Error_policyFxn__C                                            
1001c487  xdc_runtime_Error_policySpin__E                                           
0000058c  xdc_runtime_Error_policy__C                                               
1001c769  xdc_runtime_Error_raiseX__E                                               
1001c885  xdc_runtime_Gate_enterSystem__E                                           
1001c879  xdc_runtime_Gate_leaveSystem__E                                           
00000530  xdc_runtime_IGateProvider_Interface__BASE__C                              
00000534  xdc_runtime_IHeap_Interface__BASE__C                                      
00000538  xdc_runtime_IModule_Interface__BASE__C                                    
UNDEFED   xdc_runtime_Main_Module_GateProxy_Handle__label__S                        
UNDEFED   xdc_runtime_Main_Module_GateProxy_Object__delete__S                       
UNDEFED   xdc_runtime_Main_Module_GateProxy_query__E                                
0000053c  xdc_runtime_Main_Module__diagsEnabled__C                                  
00000540  xdc_runtime_Main_Module__diagsIncluded__C                                 
00000544  xdc_runtime_Main_Module__diagsMask__C                                     
00000584  xdc_runtime_Main_Module__id__C                                            
1001bc89  xdc_runtime_Memory_HeapProxy_Handle__label__S                             
UNDEFED   xdc_runtime_Memory_HeapProxy_Handle__label__S__mangled__                  
1001bca9  xdc_runtime_Memory_HeapProxy_Object__delete__S                            
UNDEFED   xdc_runtime_Memory_HeapProxy_Object__delete__S__mangled__                 
1001c889  xdc_runtime_Memory_HeapProxy_alloc__E                                     
1001c88d  xdc_runtime_Memory_HeapProxy_free__E                                      
00000586  xdc_runtime_Memory_Module__id__C                                          
20000200  xdc_runtime_Memory_Module__state__V                                       
1001c489  xdc_runtime_Memory_alloc__E                                               
1001c84d  xdc_runtime_Memory_calloc__E                                              
00000548  xdc_runtime_Memory_defaultHeapInstance__C                                 
1001c801  xdc_runtime_Memory_free__E                                                
1001c859  xdc_runtime_Memory_getMaxDefaultTypeAlign__E                              
1001c785  xdc_runtime_Memory_valloc__E                                              
200001f0  xdc_runtime_Startup_Module__state__V                                      
00000001  xdc_runtime_Startup__EXECFXN__C                                           
00000001  xdc_runtime_Startup__RESETFXN__C                                          
0000054c  xdc_runtime_Startup_execImpl__C                                           
1001c559  xdc_runtime_Startup_exec__E                                               
00007325  xdc_runtime_Startup_exec__I                                               
000097d4  xdc_runtime_Startup_firstFxns__A                                          
00000514  xdc_runtime_Startup_firstFxns__C                                          
00005bc5  xdc_runtime_Startup_getState__I                                           
0000051c  xdc_runtime_Startup_lastFxns__C                                           
00000550  xdc_runtime_Startup_maxPasses__C                                          
000074c1  xdc_runtime_Startup_reset__I                                              
000074cd  xdc_runtime_Startup_rtsDone__E                                            
000097a0  xdc_runtime_Startup_sfxnRts__A                                            
00000554  xdc_runtime_Startup_sfxnRts__C                                            
00009710  xdc_runtime_Startup_sfxnTab__A                                            
00000558  xdc_runtime_Startup_sfxnTab__C                                            
0000055c  xdc_runtime_Startup_startModsFxn__C                                       
1001c30d  xdc_runtime_Startup_startMods__I                                          
00000560  xdc_runtime_SysCallback_abortFxn__C                                       
1001c811  xdc_runtime_SysCallback_abort__E                                          
00007563  xdc_runtime_SysCallback_defaultAbort                                      
00007565  xdc_runtime_SysCallback_defaultExit                                       
00000564  xdc_runtime_SysCallback_exitFxn__C                                        
1001c821  xdc_runtime_SysCallback_exit__E                                           
1001bbe9  xdc_runtime_System_Module_GateProxy_Handle__label__S                      
UNDEFED   xdc_runtime_System_Module_GateProxy_Handle__label__S__mangled__           
1001bc09  xdc_runtime_System_Module_GateProxy_Object__delete__S                     
UNDEFED   xdc_runtime_System_Module_GateProxy_Object__delete__S__mangled__          
1001c891  xdc_runtime_System_Module_GateProxy_enter__E                              
1001c895  xdc_runtime_System_Module_GateProxy_leave__E                              
1001c269  xdc_runtime_System_Module_GateProxy_query__E                              
UNDEFED   xdc_runtime_System_Module_GateProxy_query__E__mangled__                   
200001f8  xdc_runtime_System_Module__state__V                                       
1001c87f  xdc_runtime_System_Module_startup__E                                      
UNDEFED   xdc_runtime_System_SupportProxy_abort__E                                  
UNDEFED   xdc_runtime_System_SupportProxy_exit__E                                   
00000568  xdc_runtime_System_abortFxn__C                                            
1001c899  xdc_runtime_System_abortSpin__E                                           
1001c749  xdc_runtime_System_abort__E                                               
1001c681  xdc_runtime_System_atexit__E                                              
0000056c  xdc_runtime_System_exitFxn__C                                             
1001c89b  xdc_runtime_System_exitSpin__E                                            
1001c7d1  xdc_runtime_System_exit__E                                                
00000570  xdc_runtime_System_maxAtexitHandlers__C                                   
1001c6b9  xdc_runtime_System_processAtExit__E                                       
00000588  xdc_runtime_Text_charCnt__C                                               
000097b2  xdc_runtime_Text_charTab__A                                               
00000574  xdc_runtime_Text_charTab__C                                               
1001c71d  xdc_runtime_Text_cordText__E                                              
0000058a  xdc_runtime_Text_isLoaded__C                                              
00000578  xdc_runtime_Text_nameEmpty__C                                             
0000057c  xdc_runtime_Text_nameStatic__C                                            
00000580  xdc_runtime_Text_nameUnknown__C                                           
1001c7e9  xdc_runtime_Text_ropeText__E                                              
1001c831  xdc_runtime_Timestamp_SupportProxy_get32__E                               
000073e5  xdc_runtime_Timestamp_SupportProxy_get32__E__mangled__                    
1001b9d1  xdc_runtime_Timestamp_SupportProxy_get64__E                               
UNDEFED   xdc_runtime_Timestamp_SupportProxy_get64__E__mangled__                    
1001c12f  xdc_runtime_Timestamp_SupportProxy_getFreq__E                             
UNDEFED   xdc_runtime_Timestamp_SupportProxy_getFreq__E__mangled__                  
1001c831  xdc_runtime_Timestamp_get32__E                                            
UNDEFED   xdc_runtime_Timestamp_get32__E                                            
1001b9d1  xdc_runtime_Timestamp_get64__E                                            
UNDEFED   xdc_runtime_Timestamp_get64__E                                            
1001c12f  xdc_runtime_Timestamp_getFreq__E                                          
UNDEFED   xdc_runtime_Timestamp_getFreq__E                                          


GLOBAL SYMBOLS: SORTED BY Symbol Address 

address   name                                                                      
-------   ----                                                                      
00000000  __ASM__                                                                   
00000000  ti_sysbios_family_arm_m3_Hwi_resetVectors                                 
00000001  xdc_runtime_Startup__EXECFXN__C                                           
00000001  xdc_runtime_Startup__RESETFXN__C                                          
00000089  __ISA__                                                                   
0000009b  __PLAT__                                                                  
000000c2  __TARG__                                                                  
000000e7  __TRDR__                                                                  
00000100  ti_sysbios_knl_Task_Object__PARAMS__C                                     
0000013c  ti_sysbios_knl_Mailbox_Object__PARAMS__C                                  
00000170  ti_sysbios_family_arm_m3_Hwi_Object__PARAMS__C                            
000001a0  ti_sysbios_hal_Hwi_Object__PARAMS__C                                      
000001cc  ti_sysbios_heaps_HeapMem_Module__FXNS__C                                  
000001f4  ti_sysbios_knl_Swi_Object__PARAMS__C                                      
0000021c  ti_sysbios_gates_GateHwi_Module__FXNS__C                                  
00000240  ti_sysbios_gates_GateMutex_Module__FXNS__C                                
00000264  ti_sysbios_heaps_HeapMem_Object__PARAMS__C                                
00000288  ti_sysbios_knl_Clock_Object__PARAMS__C                                    
000002ac  ti_sysbios_knl_Semaphore_Object__PARAMS__C                                
000002d0  ti_sysbios_family_arm_m3_Hwi_Object__DESC__C                              
000002f0  ti_sysbios_gates_GateHwi_Object__DESC__C                                  
00000300  __STACK_SIZE                                                              
00000310  ti_sysbios_gates_GateMutex_Object__DESC__C                                
00000330  ti_sysbios_hal_Hwi_Object__DESC__C                                        
00000350  ti_sysbios_heaps_HeapMem_Object__DESC__C                                  
00000370  ti_sysbios_knl_Clock_Object__DESC__C                                      
00000390  ti_sysbios_knl_Mailbox_Object__DESC__C                                    
000003b0  ti_sysbios_knl_Queue_Object__DESC__C                                      
000003d0  ti_sysbios_knl_Semaphore_Object__DESC__C                                  
000003f0  ti_sysbios_knl_Swi_Object__DESC__C                                        
00000410  ti_sysbios_knl_Task_Object__DESC__C                                       
00000430  ti_sysbios_gates_GateHwi_Object__PARAMS__C                                
00000448  ti_sysbios_gates_GateMutex_Object__PARAMS__C                              
00000460  ti_sysbios_knl_Queue_Object__PARAMS__C                                    
00000478  ti_sysbios_knl_Idle_funcList__C                                           
00000484  ti_sysbios_family_arm_cc26xx_Timer_startupNeeded__C                       
00000488  ti_sysbios_family_arm_m3_Hwi_E_alreadyDefined__C                          
0000048c  ti_sysbios_family_arm_m3_Hwi_E_hwiLimitExceeded__C                        
00000490  ti_sysbios_family_arm_m3_Hwi_NUM_INTERRUPTS__C                            
00000494  ti_sysbios_family_arm_m3_Hwi_Object__count__C                             
00000498  ti_sysbios_family_arm_m3_Hwi_Object__table__C                             
0000049c  ti_sysbios_family_arm_m3_Hwi_ccr__C                                       
000004a0  ti_sysbios_family_arm_m3_Hwi_excHandlerFunc__C                            
000004a4  ti_sysbios_family_arm_m3_Hwi_nullIsrFunc__C                               
000004a8  ti_sysbios_family_arm_m3_Hwi_numSparseInterrupts__C                       
000004ac  ti_sysbios_family_arm_m3_Hwi_priGroup__C                                  
000004b0  ti_sysbios_family_arm_m3_TaskSupport_stackAlignment__C                    
000004b4  ti_sysbios_heaps_HeapMem_E_memory__C                                      
000004b8  ti_sysbios_heaps_HeapMem_Module__gateObj__C                               
000004bc  ti_sysbios_heaps_HeapMem_Object__count__C                                 
000004c0  ti_sysbios_heaps_HeapMem_Object__table__C                                 
000004c4  ti_sysbios_heaps_HeapMem_reqAlign__C                                      
000004c8  ti_sysbios_knl_Clock_serviceMargin__C                                     
000004cc  ti_sysbios_knl_Mailbox_Object__count__C                                   
000004d0  ti_sysbios_knl_Mailbox_Object__table__C                                   
000004d4  ti_sysbios_knl_Queue_Object__count__C                                     
000004d8  ti_sysbios_knl_Queue_Object__table__C                                     
000004dc  ti_sysbios_knl_Swi_Object__count__C                                       
000004e0  ti_sysbios_knl_Swi_Object__table__C                                       
000004e4  ti_sysbios_knl_Swi_numPriorities__C                                       
000004e8  ti_sysbios_knl_Task_Object__count__C                                      
000004ec  ti_sysbios_knl_Task_Object__table__C                                      
000004f0  ti_sysbios_knl_Task_allBlockedFunc__C                                     
000004f4  ti_sysbios_knl_Task_defaultStackHeap__C                                   
000004f8  ti_sysbios_knl_Task_defaultStackSize__C                                   
000004fc  ti_sysbios_knl_Task_numConstructedTasks__C                                
00000502  ti_sysbios_family_arm_cc26xx_Timer_Module__id__C                          
00000504  ti_sysbios_family_arm_cc26xx_TimestampProvider_useClockTimer__C           
00000506  ti_sysbios_family_arm_m3_Hwi_Module__id__C                                
00000508  ti_sysbios_gates_GateHwi_Module__id__C                                    
0000050a  ti_sysbios_gates_GateMutex_Module__id__C                                  
0000050c  ti_sysbios_heaps_HeapMem_Module__id__C                                    
0000050e  ti_sysbios_knl_Task_initStackFlag__C                                      
00000510  ti_sysbios_knl_Clock_tickMode__C                                          
00000514  xdc_runtime_Startup_firstFxns__C                                          
0000051c  xdc_runtime_Startup_lastFxns__C                                           
00000524  xdc_runtime_Assert_E_assertFailed__C                                      
00000528  xdc_runtime_Error_E_memory__C                                             
0000052c  xdc_runtime_Error_policyFxn__C                                            
00000530  xdc_runtime_IGateProvider_Interface__BASE__C                              
00000534  xdc_runtime_IHeap_Interface__BASE__C                                      
00000538  xdc_runtime_IModule_Interface__BASE__C                                    
0000053c  xdc_runtime_Main_Module__diagsEnabled__C                                  
00000540  xdc_runtime_Main_Module__diagsIncluded__C                                 
00000544  xdc_runtime_Main_Module__diagsMask__C                                     
00000548  xdc_runtime_Memory_defaultHeapInstance__C                                 
0000054c  xdc_runtime_Startup_execImpl__C                                           
00000550  xdc_runtime_Startup_maxPasses__C                                          
00000554  xdc_runtime_Startup_sfxnRts__C                                            
00000558  xdc_runtime_Startup_sfxnTab__C                                            
0000055c  xdc_runtime_Startup_startModsFxn__C                                       
00000560  xdc_runtime_SysCallback_abortFxn__C                                       
00000564  xdc_runtime_SysCallback_exitFxn__C                                        
00000568  xdc_runtime_System_abortFxn__C                                            
0000056c  xdc_runtime_System_exitFxn__C                                             
00000570  xdc_runtime_System_maxAtexitHandlers__C                                   
00000574  xdc_runtime_Text_charTab__C                                               
00000578  xdc_runtime_Text_nameEmpty__C                                             
0000057c  xdc_runtime_Text_nameStatic__C                                            
00000580  xdc_runtime_Text_nameUnknown__C                                           
00000584  xdc_runtime_Main_Module__id__C                                            
00000586  xdc_runtime_Memory_Module__id__C                                          
00000588  xdc_runtime_Text_charCnt__C                                               
0000058a  xdc_runtime_Text_isLoaded__C                                              
0000058c  xdc_runtime_Error_policy__C                                               
00000590  ti_sysbios_rom_ROM_AONRTCChannelEnable                                    
00000594  ti_sysbios_rom_ROM_AONRTCCompareValueSet                                  
00000598  ti_sysbios_rom_ROM_AONRTCCurrentCompareValueGet                           
0000059c  ti_sysbios_rom_ROM_AONRTCEventClear                                       
000005a0  ti_sysbios_rom_ROM_ti_sysbios_family_arm_cc26xx_Timer_getCount64__E       
000005a4  ti_sysbios_rom_ROM_ti_sysbios_family_arm_cc26xx_Timer_getCurrentTick__E   
000005a8  ti_sysbios_rom_ROM_ti_sysbios_family_arm_cc26xx_Timer_getMaxTicks__E      
000005ac  ti_sysbios_rom_ROM_ti_sysbios_family_arm_cc26xx_Timer_initDevice__I       
000005b0  ti_sysbios_rom_ROM_ti_sysbios_family_arm_cc26xx_Timer_setNextTick__E      
000005b4  ti_sysbios_rom_ROM_ti_sysbios_family_arm_cc26xx_Timer_setThreshold__I     
000005b8  ti_sysbios_rom_ROM_ti_sysbios_family_arm_cc26xx_Timer_start__E            
000005bc  ti_sysbios_rom_ROM_ti_sysbios_family_arm_cc26xx_TimestampProvider_get32__E
000005c0  ti_sysbios_rom_ROM_xdc_runtime_Startup_getState__I                        
000005c4  ti_sysbios_rom_ROM_xdc_runtime_System_SupportProxy_abort__E               
000005c8  ti_sysbios_rom_ROM_xdc_runtime_System_SupportProxy_exit__E                
000005cc  ti_sysbios_gates_GateMutex_Instance_State_sem__O                          
000005d0  ti_sysbios_knl_Clock_Module_State_clockQ__O                               
000005d4  ti_sysbios_knl_Mailbox_Instance_State_dataQue__O                          
000005d8  ti_sysbios_knl_Mailbox_Instance_State_dataSem__O                          
000005dc  ti_sysbios_knl_Mailbox_Instance_State_freeQue__O                          
000005e0  ti_sysbios_knl_Mailbox_Instance_State_freeSem__O                          
000005e4  ti_sysbios_knl_Semaphore_Instance_State_pendQ__O                          
000005e8  ti_sysbios_knl_Task_Module_State_inactiveQ__O                             
000009a5  EasyLink_init                                                             
00000cc9  __mktime32                                                                
00000cc9  mktime                                                                    
00000f69  Power_sleep                                                               
00001191  __aeabi_ldivmod                                                           
000013af  NOROM_RFCAdi3VcoLdoVoltageMode                                            
000013b1  NOROM_SysCtrlSetRechargeBeforePowerDown                                   
000015b5  __aeabi_uldivmod                                                          
00001999  RF_postCmd                                                                
00001d45  PIN_init                                                                  
00002095  PowerCC26XX_doCalibrate                                                   
00002219  CheckParkingSensor                                                        
00002389  EasyLink_receiveAsync                                                     
000027c1  SensorMpu9250_magRead                                                     
00002bb9  EasyLink_transmit                                                         
00002cf9  __localtime32                                                             
00002cf9  localtime                                                                 
00002e31  NOROM_SetupAfterColdResetWakeupFromShutDownCfg3                           
00003089  Power_init                                                                
000034e5  RF_close                                                                  
000035ed  I2CCC26XX_open                                                            
000038bd  ti_sysbios_knl_Event_pend__E                                              
000039a5  NOROM_SetupAfterColdResetWakeupFromShutDownCfg2                           
00003b69  EasyLink_enableRxAddrFilter                                               
00003c41  PowerCC26XX_standbyPolicy                                                 
00003d15  Power_releaseDependency                                                   
00003de9  Power_setDependency                                                       
00003eb9  getSleepValue                                                             
00003f89  RF_open                                                                   
00004119  I2CCC26XX_transfer                                                        
000041db  NOROM_RFCRTrim                                                            
000041dd  EasyLink_setCtrl                                                          
0000435d  CalibrateParkingSensor                                                    
000044d5  NodeRadioTask_init                                                        
00004585  NOROM_SetupTrimDevice                                                     
00004585  ti_sysbios_family_arm_cc26xx_Boot_trimDevice                              
0000462d  SensorI2C_select                                                          
000046cd  __TI_auto_init                                                            
0000476d  __aeabi_memcpy                                                            
0000476d  __aeabi_memcpy4                                                           
0000476d  __aeabi_memcpy8                                                           
0000476d  memcpy                                                                    
000048a1  ti_sysbios_knl_Clock_workFuncDynamic__E                                   
00004939  PIN_open                                                                  
000049cd  I2CCC26XX_cancel                                                          
00004c85  RF_pendCmd                                                                
00004d05  SensorMpu9250_reset                                                       
00004e01  __aeabi_memclr                                                            
00004e01  __aeabi_memclr4                                                           
00004e01  __aeabi_memclr8                                                           
00004e03  __aeabi_memset                                                            
00004e03  __aeabi_memset4                                                           
00004e03  __aeabi_memset8                                                           
00004e09  memset                                                                    
00004e7d  NOROM_SetupAfterColdResetWakeupFromShutDownCfg1                           
00004ef5  NodeRadioTask_sendParkingData                                             
00004fe5  PowerCC26XX_auxISR                                                        
00005229  ti_sysbios_family_arm_cc26xx_Timer_start__E                               
0000529d  NOROM_ChipInfo_GetHwRevision                                              
0000530d  SensorI2C_open                                                            
0000537d  SensorMpu9250_magReset                                                    
000053ed  ti_sysbios_knl_Event_post__E                                              
0000545d  NOROM_SetupGetTrimForAmpcompCtrl                                          
000054c9  NodeTask_init                                                             
00005535  PowerCC26XX_calibrate                                                     
000055a1  NOROM_SetupGetTrimForAnabypassValue1                                      
00005609  NOROM_SysCtrl_DCDC_VoltageConditionalControl                              
00005671  RF_getCurrentTime                                                         
000056d9  SensorMpu9250_test                                                        
00005741  __TI_decompress_lzss                                                      
000057a9  I2CCC26XX_close                                                           
00005871  SensorI2C_writeReg                                                        
000058d5  PowerCC26XX_RCOSC_clockFunc                                               
00005935  SensorTmp007_enable                                                       
00005a55  NOROM_OSCHF_AttemptToSwitchToXosc                                         
00005ab1  NOROM_SysCtrlAdjustRechargeAfterPowerDown                                 
00005b0d  PIN_remove                                                                
00005bc5  xdc_runtime_Startup_getState__I                                           
00005c79  PowerCC26XX_initiateCalibration                                           
00005cd1  SensorI2C_writeRead                                                       
00005e21  NOROM_SetupSetCacheModeAccordingToCcfgSetting                             
00005f61  NOROM_ChipInfo_GetChipType                                                
00005fad  NOROM_OSCClockSourceSet                                                   
00005ff9  SensorI2C_write                                                           
00006091  copy_in                                                                   
00006125  NOROM_ChipInfo_GetChipFamily                                              
0000616d  NOROM_DDI16BitfieldWrite                                                  
000061fd  RF_runCmd                                                                 
00006245  SensorMpu9250_enable                                                      
0000631d  DisableOtherSensors                                                       
00006361  ResetISR                                                                  
00006361  _c_int00                                                                  
000063a5  main                                                                      
000063e9  NOROM_DDI16BitfieldRead                                                   
00006429  __aeabi_uidiv                                                             
00006429  __aeabi_uidivmod                                                          
000064a9  NOROM_OSC_HPOSCRelativeFrequencyOffsetGet                                 
000064e5  NOROM_RFCSynthPowerDown                                                   
00006521  PIN_setOutputValue                                                        
00006611  I2C_init                                                                  
00006649  PIN_setInterrupt                                                          
00006681  SensorOpt3001_enable                                                      
000066b9  ti_sysbios_family_arm_cc26xx_Seconds_get__E                               
000066b9  ti_sysbios_hal_Seconds_SecondsProxy_get__E                                
000066f1  ti_sysbios_family_arm_cc26xx_Timer_getCurrentTick__E                      
00006761  NOROM_OSCHF_SwitchToRcOscTurnOffXosc                                      
00006795  PIN_setConfig                                                             
000067fd  ti_sysbios_family_arm_cc26xx_Timer_initDevice__I                          
00006831  ti_sysbios_family_arm_cc26xx_Timer_setNextTick__E                         
00006865  I2C_open                                                                  
00006895  NOROM_SetupSetAonRtcSubSecInc                                             
000068c5  Power_releaseConstraint                                                   
000068f5  Power_setConstraint                                                       
00006955  ti_sysbios_BIOS_atExitFunc__I                                             
00006985  ti_sysbios_BIOS_startFunc__I                                              
000069b5  ti_sysbios_family_arm_cc26xx_Timer_setThreshold__I                        
000069e5  NOROM_DDI32RegWrite                                                       
00006a11  NOROM_SetupGetTrimForRadcExtCfg                                           
00006a3d  PINCC26XX_setMux                                                          
00006ac1  ti_sysbios_knl_Clock_getTicksUntilInterrupt__E                            
00006aed  ti_sysbios_knl_Event_construct                                            
00006b19  ti_sysbios_knl_Event_pendTimeout__I                                       
00006b45  NOROM_AONBatMonTemperatureGetDegC                                         
00006b6d  Power_registerNotify                                                      
00006bbd  SafeHapiVoid                                                              
00006be5  List_put                                                                  
00006c0d  PINCC26XX_getPinCount                                                     
00006c31  SensorMpu9250_powerOff                                                    
00006c55  SensorMpu9250_powerOn                                                     
00006cc1  ti_sysbios_BIOS_registerRTSLock__I                                        
00006ce5  ti_sysbios_BIOS_removeRTSLock__I                                          
00006d09  ti_sysbios_family_arm_cc26xx_Seconds_set__E                               
00006d09  ti_sysbios_hal_Seconds_SecondsProxy_set__E                                
00006d2d  ti_sysbios_family_arm_cc26xx_Timer_getMaxTicks__E                         
00006d51  NOROM_RFCDoorbellSendTo                                                   
00006d71  NOROM_RFCRfTrimRead                                                       
00006d91  NOROM_SetupGetTrimForXoscHfCtl                                            
00006db1  Power_unregisterNotify                                                    
00006e11  ti_sysbios_BIOS_rtsLock__I                                                
00006e31  ti_sysbios_family_arm_cc26xx_Timer_dynamicStub__E                         
00006e51  ti_sysbios_knl_Clock_stop__E                                              
00006e71  ti_sysbios_knl_Event_checkEvents__I                                       
00006e91  PIN_close                                                                 
00006eaf  Power_getTransitionLatency                                                
00006ecd  NOROM_OSCClockSourceGet                                                   
00006ee9  NOROM_SetupGetTrimForAmpcompTh2                                           
00006f05  NOROM_SetupGetTrimForRcOscLfRtuneCtuneTrim                                
00006f59  SensorI2C_readReg                                                         
00006fad  List_remove                                                               
00006fc7  SensorMpu9250_powerIsOn                                                   
00006fe1  NOROM_AONRTCCurrentCompareValueGet                                        
00006ff9  NOROM_ChipInfo_GetPackageType                                             
00007011  NOROM_OSCHF_TurnOnXosc                                                    
00007029  NOROM_RFCCpeIntGetAndClear                                                
00007041  NOROM_SetupGetTrimForAdcShModeEn                                          
00007059  NOROM_SetupGetTrimForAdcShVbufEn                                          
00007071  NOROM_SetupGetTrimForAmpcompTh1                                           
00007089  NOROM_SetupGetTrimForDblrLoopFilterResetVoltage                           
000070a1  NOROM_SetupGetTrimForRcOscLfIBiasTrim                                     
000070b9  NOROM_SetupGetTrimForXoscLfRegulatorAndCmirrwrRatio                       
000070d1  Power_idleFunc                                                            
00007101  SensorI2C_close                                                           
00007131  _args_main                                                                
00007149  __aeabi_lmul                                                              
00007179  ti_sysbios_BIOS_rtsUnlock__I                                              
00007191  ti_sysbios_knl_Swi_or__E                                                  
000071a9  ti_sysbios_rom_cortexm_cc26xx_CC26xx_checkRevision__E                     
000071c1  ti_sysbios_BIOS_exitFunc__I                                               
00007285  NOROM_AONRTCCurrent64BitValueGet                                          
00007299  NOROM_ThisCodeIsBuiltForCC26xxHwRev22AndLater_HaltIfViolated              
000072ad  PIN_getOutputValue                                                        
000072c1  RF_Params_init                                                            
000072d5  SensorI2C_deselect                                                        
000072e9  _register_unlock                                                          
000072ef  _register_lock                                                            
000072f7  _nop                                                                      
000072fd  ti_sysbios_knl_Clock_doTick__I                                            
00007311  ti_sysbios_knl_Event_Instance_init__E                                     
00007325  xdc_runtime_Startup_exec__I                                               
00007337  __aeabi_idiv0                                                             
00007349  I2C_Params_init                                                           
00007359  NOROM_RFCRfTrimSet                                                        
00007369  NOROM_SetupGetTrimForXoscHfFastStart                                      
00007379  NOROM_SetupGetTrimForXoscHfIbiastherm                                     
000073b9  ti_sysbios_family_arm_m3_Hwi_post__E                                      
000073b9  ti_sysbios_hal_Hwi_HwiProxy_post__E                                       
000073b9  ti_sysbios_hal_Hwi_post__E                                                
000073c9  NOROM_VIMSModeGet                                                         
000073d7  __TI_decompress_none                                                      
000073e5  ti_sysbios_family_arm_cc26xx_TimestampProvider_get32__E                   
000073e5  xdc_runtime_Timestamp_SupportProxy_get32__E__mangled__                    
000073f3  __aeabi_ldiv0                                                             
00007401  IsReportTime                                                              
0000740d  NOROM_CPUcpsid                                                            
00007419  NOROM_CPUcpsie                                                            
00007425  Power_getConstraintMask                                                   
00007431  Power_getDependencyCount                                                  
0000743d  SensorOpt3001_init                                                        
0000746d  __TI_zero_init                                                            
00007479  ti_sysbios_knl_Event_Params__init__S                                      
000074b5  ti_sysbios_knl_Swi_getTrigger__E                                          
000074c1  xdc_runtime_Startup_reset__I                                              
000074cd  xdc_runtime_Startup_rtsDone__E                                            
000074d9  I2CCC26XX_init                                                            
000074e3  I2C_close                                                                 
000074ed  I2C_transfer                                                              
000074f7  List_empty                                                                
00007501  SensorTmp007_init                                                         
00007513  NodeRadioTask_UnixTime                                                    
0000752b  I2CCC26XX_control                                                         
00007531  NOROM_CPUdelay                                                            
0000753d  ti_sysbios_family_arm_m3_Hwi_setFunc__E                                   
00007543  HwiP_disable                                                              
00007547  List_head                                                                 
0000754b  List_next                                                                 
00007557  ti_sysbios_family_arm_cc26xx_Timer_getCount64__E                          
0000755b  ti_sysbios_BIOS_linkedWithIncorrectBootLibrary__E                         
0000755d  ti_sysbios_BIOS_nullFunc__I                                               
0000755f  ti_sysbios_knl_Clock_triggerFunc__I                                       
00007561  ti_sysbios_rom_cortexm_cc26xx_CC26xx_badRomRevision__E                    
00007563  xdc_runtime_SysCallback_defaultAbort                                      
00007565  xdc_runtime_SysCallback_defaultExit                                       
00009560  BoardGpioInitTable                                                        
00009628  resourceDB                                                                
000096bc  i2cCC26xxHWAttrs                                                          
000096ec  I2C_config                                                                
00009710  xdc_runtime_Startup_sfxnTab__A                                            
00009734  I2CCC26XX_fxnTable                                                        
00009754  ti_sysbios_knl_Event_Object__DESC__C                                      
00009774  ti_sysbios_knl_Event_Object__PARAMS__C                                    
000097a0  xdc_runtime_Startup_sfxnRts__A                                            
000097b2  xdc_runtime_Text_charTab__A                                               
000097b4  PowerCC26XX_config                                                        
000097c4  I2C_defaultParams                                                         
000097d4  xdc_runtime_Startup_firstFxns__A                                          
000097e0  PINCC26XX_hwAttrs                                                         
000097e8  RFCC26XX_hwAttrs                                                          
000097f0  ti_sysbios_knl_Clock_tickPeriod__C                                        
000097f4  ti_sysbios_knl_Clock_triggerClock__C                                      
000097f8  ti_sysbios_knl_Event_Instance_State_pendQ__O                              
000097fc  ti_sysbios_knl_Idle_funcList__A                                           
00009800  __TI_static_base__                                                        
00009ae4  __TI_Handler_Table_Base                                                   
00009af0  __TI_Handler_Table_Limit                                                  
00009b28  __TI_CINIT_Base                                                           
00009b88  __TI_CINIT_Limit                                                          
0001ffa8  __ccfg                                                                    
1001a001  ti_sysbios_knl_Mailbox_Instance_init__E                                   
1001a0cd  ti_sysbios_knl_Semaphore_pend__E                                          
1001a199  ti_sysbios_heaps_HeapMem_alloc__E                                         
1001a25d  ti_sysbios_knl_Task_Instance_init__E                                      
1001a319  ti_sysbios_family_arm_m3_Hwi_postInit__I                                  
1001a3c9  ti_sysbios_family_arm_m3_Hwi_Instance_init__E                             
1001a469  ti_sysbios_family_arm_cc26xx_Timer_periodicStub__E                        
1001a4fd  ti_sysbios_knl_Task_Instance_finalize__E                                  
1001a591  ti_sysbios_knl_Mailbox_post__E                                            
1001a615  ti_sysbios_knl_Task_postInit__I                                           
1001a699  ti_sysbios_family_arm_m3_Hwi_initNVIC__E                                  
1001a719  ti_sysbios_knl_Clock_startI__E                                            
1001a795  ti_sysbios_heaps_HeapMem_free__E                                          
1001a80d  ti_sysbios_knl_Clock_walkQueueDynamic__E                                  
1001a885  ti_sysbios_knl_Clock_workFunc__E                                          
1001a8fd  ti_sysbios_knl_Mailbox_pend__E                                            
1001a96d  ti_sysbios_knl_Task_sleep__E                                              
1001a9dd  ti_sysbios_knl_Mailbox_Instance_finalize__E                               
1001aa49  ti_sysbios_family_arm_m3_Hwi_dispatchC__I                                 
1001aab1  ti_sysbios_family_arm_m3_Hwi_Object__create__S                            
1001ab15  ti_sysbios_family_arm_m3_Hwi_create                                       
1001ab79  ti_sysbios_hal_Hwi_create                                                 
1001abdd  ti_sysbios_knl_Mailbox_create                                             
1001ac41  ti_sysbios_knl_Semaphore_post__E                                          
1001aca5  ti_sysbios_knl_Swi_Instance_init__E                                       
1001ad05  ti_sysbios_knl_Swi_create                                                 
1001ad61  ti_sysbios_knl_Swi_restoreHwi__E                                          
1001adbd  ti_sysbios_knl_Task_Module_startup__E                                     
1001ae19  ti_sysbios_knl_Task_create                                                
1001ae75  ti_sysbios_knl_Task_startCore__E                                          
1001aed1  ti_sysbios_family_arm_m3_Hwi_Instance_finalize__E                         
1001af29  ti_sysbios_family_arm_m3_Hwi_construct                                    
1001af81  ti_sysbios_knl_Mailbox_construct                                          
1001afd9  ti_sysbios_knl_Swi_run__I                                                 
1001b031  ti_sysbios_knl_Swi_schedule__I                                            
1001b085  ti_sysbios_knl_Swi_construct                                              
1001b0d5  ti_sysbios_knl_Swi_runLoop__I                                             
1001b125  ti_sysbios_knl_Task_construct                                             
1001b175  ti_sysbios_knl_Task_schedule__I                                           
1001b1c1  ti_sysbios_family_arm_m3_Hwi_Module_startup__E                            
1001b209  ti_sysbios_heaps_HeapMem_getStats__E                                      
1001b251  ti_sysbios_knl_Mailbox_Module_startup__E                                  
1001b299  ti_sysbios_family_arm_m3_Hwi_disableInterrupt__E                          
1001b2dd  ti_sysbios_family_arm_m3_Hwi_enableInterrupt__E                           
1001b321  ti_sysbios_knl_Swi_post__E                                                
1001b365  ti_sysbios_knl_Task_allBlockedFunction__I                                 
1001b3a9  ti_sysbios_knl_Task_yield__E                                              
1001b3ed  ti_sysbios_knl_Clock_create                                               
1001b429  ti_sysbios_knl_Task_exit__E                                               
1001b463  ti_sysbios_gates_GateHwi_Instance_init__E                                 
1001b465  ti_sysbios_family_arm_m3_Hwi_getStackInfo__E                              
1001b49d  ti_sysbios_family_arm_m3_TaskSupport_start__E                             
1001b4d5  ti_sysbios_heaps_HeapMem_Instance_init__E                                 
1001b50d  ti_sysbios_knl_Clock_Instance_init__E                                     
1001b545  ti_sysbios_heaps_HeapMem_init__I                                          
1001b579  ti_sysbios_knl_Clock_construct                                            
1001b5ad  ti_sysbios_knl_Semaphore_create                                           
1001b5e1  ti_sysbios_knl_Swi_restore__E                                             
1001b615  ti_sysbios_knl_Task_blockI__E                                             
1001b649  ti_sysbios_gates_GateMutex_Object__create__S                              
1001b679  ti_sysbios_gates_GateMutex_create                                         
1001b6a9  ti_sysbios_gates_GateMutex_enter__E                                       
1001b6d9  ti_sysbios_knl_Clock_getTicks__E                                          
1001b709  ti_sysbios_knl_Semaphore_construct                                        
1001b739  ti_sysbios_knl_Task_processVitalTaskFlag__I                               
1001b769  ti_sysbios_family_arm_cc26xx_Timer_postInit__I                            
1001b795  ti_sysbios_family_arm_cc26xx_Timer_startup__E                             
1001b795  ti_sysbios_knl_Clock_TimerProxy_startup__E                                
1001b7c1  ti_sysbios_family_arm_m3_Hwi_Object__get__S                               
1001b7ed  ti_sysbios_gates_GateMutex_construct                                      
1001b819  ti_sysbios_hal_Hwi_initStack                                              
1001b845  ti_sysbios_heaps_HeapMem_Object__create__S                                
1001b871  ti_sysbios_heaps_HeapMem_Object__get__S                                   
1001b89d  ti_sysbios_knl_Mailbox_Object__get__S                                     
1001b8c9  ti_sysbios_knl_Mailbox_postInit__I                                        
1001b8f5  ti_sysbios_knl_Queue_construct                                            
1001b921  ti_sysbios_knl_Queue_create                                               
1001b94d  ti_sysbios_knl_Semaphore_pendTimeout__I                                   
1001b979  ti_sysbios_knl_Swi_Object__get__S                                         
1001b9a5  ti_sysbios_knl_Task_unblockI__E                                           
1001b9d1  ti_sysbios_family_arm_cc26xx_TimestampProvider_get64__E                   
1001b9d1  xdc_runtime_Timestamp_SupportProxy_get64__E                               
1001b9d1  xdc_runtime_Timestamp_get64__E                                            
1001b9f9  ti_sysbios_hal_Hwi_Instance_init__E                                       
1001ba21  ti_sysbios_knl_Clock_addI__E                                              
1001ba49  ti_sysbios_knl_Task_restore__E                                            
1001ba71  ti_sysbios_family_arm_cc26xx_Timer_Module_startup__E                      
1001ba95  ti_sysbios_gates_GateHwi_Object__create__S                                
1001bab9  ti_sysbios_BIOS_RtsGateProxy_Object__delete__S                            
1001bab9  ti_sysbios_gates_GateMutex_Object__delete__S                              
1001bab9  ti_sysbios_heaps_HeapMem_Module_GateProxy_Object__delete__S               
1001badd  ti_sysbios_knl_Clock_Object__delete__S                                    
1001bb01  ti_sysbios_knl_Semaphore_Instance_init__E                                 
1001bb25  ti_sysbios_knl_Semaphore_Object__delete__S                                
1001bb49  ti_sysbios_family_arm_cc26xx_Timer_Module__startupDone__S                 
1001bb69  ti_sysbios_family_arm_cc26xx_TimestampProvider_Module_startup__E          
1001bb89  ti_sysbios_family_arm_m3_Hwi_Module__startupDone__S                       
1001bba9  ti_sysbios_family_arm_m3_Hwi_Object__delete__S                            
1001bba9  ti_sysbios_hal_Hwi_HwiProxy_Object__delete__S                             
1001bbc9  ti_sysbios_family_arm_m3_Hwi_excHandler__I                                
1001bbe9  ti_sysbios_gates_GateHwi_Handle__label__S                                 
1001bbe9  xdc_runtime_System_Module_GateProxy_Handle__label__S                      
1001bc09  ti_sysbios_gates_GateHwi_Object__delete__S                                
1001bc09  xdc_runtime_System_Module_GateProxy_Object__delete__S                     
1001bc29  ti_sysbios_BIOS_RtsGateProxy_Handle__label__S                             
1001bc29  ti_sysbios_gates_GateMutex_Handle__label__S                               
1001bc29  ti_sysbios_heaps_HeapMem_Module_GateProxy_Handle__label__S                
1001bc49  ti_sysbios_gates_GateMutex_Object__destruct__S                            
1001bc69  ti_sysbios_hal_Hwi_Object__delete__S                                      
1001bc89  ti_sysbios_heaps_HeapMem_Handle__label__S                                 
1001bc89  xdc_runtime_Memory_HeapProxy_Handle__label__S                             
1001bca9  ti_sysbios_heaps_HeapMem_Object__delete__S                                
1001bca9  xdc_runtime_Memory_HeapProxy_Object__delete__S                            
1001bcc9  ti_sysbios_knl_Clock_Module_startup__E                                    
1001bce9  ti_sysbios_knl_Clock_Object__destruct__S                                  
1001bd09  ti_sysbios_knl_Idle_run__E                                                
1001bd29  ti_sysbios_knl_Mailbox_Object__delete__S                                  
1001bd49  ti_sysbios_knl_Queue_Object__delete__S                                    
1001bd69  ti_sysbios_knl_Queue_Object__get__S                                       
1001bd89  ti_sysbios_knl_Semaphore_Object__destruct__S                              
1001bda9  ti_sysbios_knl_Swi_Object__delete__S                                      
1001bdc9  ti_sysbios_knl_Task_Object__delete__S                                     
1001bde9  ti_sysbios_knl_Task_Object__get__S                                        
1001be09  ti_sysbios_knl_Task_enter__I                                              
1001be29  ti_sysbios_knl_Task_restoreHwi__E                                         
1001be49  ti_sysbios_hal_Hwi_HwiProxy_create                                        
1001be67  ti_sysbios_knl_Clock_logTick__E                                           
1001be69  ti_sysbios_family_arm_m3_Hwi_Object__destruct__S                          
1001be85  ti_sysbios_family_arm_m3_Hwi_setPriority__E                               
1001bea1  ti_sysbios_gates_GateMutex_Instance_init__E                               
1001bebd  ti_sysbios_knl_Clock_scheduleNextTick__E                                  
1001bed9  ti_sysbios_knl_Mailbox_Object__destruct__S                                
1001bef5  ti_sysbios_knl_Queue_Object__destruct__S                                  
1001bf11  ti_sysbios_knl_Queue_get__E                                               
1001bf2d  ti_sysbios_knl_Queue_put__E                                               
1001bf49  ti_sysbios_knl_Swi_Object__destruct__S                                    
1001bf65  ti_sysbios_knl_Task_Object__destruct__S                                   
1001bf81  ti_sysbios_knl_Task_sleepTimeout__I                                       
1001bf9b  ti_sysbios_knl_Swi_Instance_finalize__E                                   
1001bf9d  ti_sysbios_gates_GateMutex_leave__E                                       
1001bfb5  ti_sysbios_knl_Task_unblock__E                                            
1001bfcd  ti_sysbios_knl_Clock_Instance_finalize__E                                 
1001bfe3  ti_sysbios_knl_Clock_start__E                                             
1001bff9  ti_sysbios_BIOS_getCpuFreq__E                                             
1001c00d  ti_sysbios_family_arm_m3_Hwi_switchFromBootStack__E                       
1001c021  ti_sysbios_hal_Hwi_Module_startup__E                                      
1001c035  ti_sysbios_BIOS_exit__E                                                   
1001c045  ti_sysbios_BIOS_setThreadType__E                                          
1001c055  ti_sysbios_BIOS_start__E                                                  
1001c065  ti_sysbios_family_arm_m3_Hwi_plug__E                                      
1001c075  ti_sysbios_gates_GateMutex_Instance_finalize__E                           
1001c085  ti_sysbios_hal_Hwi_HwiProxy_Object__create__S                             
1001c095  ti_sysbios_knl_Clock_TimerProxy_getCurrentTick__E                         
1001c0a5  ti_sysbios_knl_Clock_TimerProxy_getMaxTicks__E                            
1001c0b5  ti_sysbios_knl_Clock_TimerProxy_setNextTick__E                            
1001c0c5  ti_sysbios_knl_Semaphore_Instance_finalize__E                             
1001c0d5  ti_sysbios_knl_Swi_disable__E                                             
1001c0e5  ti_sysbios_knl_Swi_enabled__E                                             
1001c0f5  ti_sysbios_knl_Task_disable__E                                            
1001c105  ti_sysbios_heaps_HeapMem_restore__E                                       
1001c113  ti_sysbios_knl_Queue_empty__E                                             
1001c121  ti_sysbios_knl_Queue_remove__E                                            
1001c12f  ti_sysbios_family_arm_cc26xx_TimestampProvider_getFreq__E                 
1001c12f  xdc_runtime_Timestamp_SupportProxy_getFreq__E                             
1001c12f  xdc_runtime_Timestamp_getFreq__E                                          
1001c13d  ti_sysbios_family_arm_m3_Hwi_Params__init__S                              
1001c13d  ti_sysbios_hal_Hwi_HwiProxy_Params__init__S                               
1001c149  ti_sysbios_family_arm_m3_Hwi_disableFxn__E                                
1001c155  ti_sysbios_family_arm_m3_Hwi_enableFxn__E                                 
1001c161  ti_sysbios_family_arm_m3_TaskSupport_getStackAlignment__E                 
1001c16d  ti_sysbios_gates_GateHwi_enter__E                                         
1001c179  ti_sysbios_BIOS_RtsGateProxy_Params__init__S                              
1001c179  ti_sysbios_gates_GateMutex_Params__init__S                                
1001c179  ti_sysbios_heaps_HeapMem_Module_GateProxy_Params__init__S                 
1001c185  ti_sysbios_knl_Clock_Params__init__S                                      
1001c191  ti_sysbios_knl_Clock_getTimerHandle__E                                    
1001c19d  ti_sysbios_knl_Mailbox_Params__init__S                                    
1001c1a9  ti_sysbios_knl_Queue_dequeue__E                                           
1001c1b5  ti_sysbios_knl_Queue_enqueue__E                                           
1001c1c1  ti_sysbios_knl_Semaphore_Params__init__S                                  
1001c1cd  ti_sysbios_knl_Swi_Params__init__S                                        
1001c1d9  ti_sysbios_knl_Task_Params__init__S                                       
1001c1e5  ti_sysbios_knl_Task_self__E                                               
1001c1f1  ti_sysbios_hal_Hwi_Instance_finalize__E                                   
1001c1fb  ti_sysbios_family_arm_m3_Hwi_doSwiRestore__I                              
1001c203  ti_sysbios_family_arm_m3_Hwi_startup__E                                   
1001c20b  ti_sysbios_knl_Idle_loop__E                                               
1001c213  ti_sysbios_family_arm_m3_Hwi_doTaskRestore__I                             
1001c219  ti_sysbios_family_arm_m3_Hwi_restoreFxn__E                                
1001c21f  ti_sysbios_gates_GateHwi_leave__E                                         
1001c22b  ti_sysbios_knl_Queue_Instance_init__E                                     
1001c231  ti_sysbios_knl_Queue_elemClear__E                                         
1001c237  ti_sysbios_knl_Swi_Module_startup__E                                      
1001c23d  ti_sysbios_knl_Swi_startup__E                                             
1001c243  ti_sysbios_knl_Task_enable__E                                             
1001c249  ti_sysbios_BIOS_RtsGateProxy_enter__E                                     
1001c24d  ti_sysbios_BIOS_RtsGateProxy_leave__E                                     
1001c251  ti_sysbios_family_arm_cc26xx_Timer_getExpiredTicks__E                     
1001c255  ti_sysbios_family_arm_cc26xx_Timer_getPeriod__E                           
1001c259  ti_sysbios_family_arm_cc26xx_Timer_setPeriod__E                           
1001c25d  ti_sysbios_family_arm_m3_Hwi_delete                                       
1001c261  ti_sysbios_family_arm_m3_Hwi_destruct                                     
1001c265  ti_sysbios_family_arm_m3_TaskSupport_Module__startupDone__S               
1001c269  ti_sysbios_gates_GateHwi_query__E                                         
1001c269  xdc_runtime_System_Module_GateProxy_query__E                              
1001c26d  ti_sysbios_gates_GateMutex_delete                                         
1001c271  ti_sysbios_gates_GateMutex_destruct                                       
1001c275  ti_sysbios_BIOS_RtsGateProxy_query__E                                     
1001c275  ti_sysbios_gates_GateMutex_query__E                                       
1001c275  ti_sysbios_heaps_HeapMem_Module_GateProxy_query__E                        
1001c279  ti_sysbios_hal_Hwi_HwiProxy_Module__startupDone__S                        
1001c27d  ti_sysbios_hal_Hwi_HwiProxy_delete                                        
1001c281  ti_sysbios_hal_Hwi_HwiProxy_disableInterrupt__E                           
1001c281  ti_sysbios_hal_Hwi_disableInterrupt__E                                    
1001c285  ti_sysbios_hal_Hwi_HwiProxy_enableInterrupt__E                            
1001c285  ti_sysbios_hal_Hwi_enableInterrupt__E                                     
1001c289  ti_sysbios_hal_Hwi_HwiProxy_getStackInfo__E                               
1001c289  ti_sysbios_hal_Hwi_getStackInfo__E                                        
1001c28d  ti_sysbios_hal_Hwi_HwiProxy_startup__E                                    
1001c28d  ti_sysbios_hal_Hwi_startup__E                                             
1001c291  ti_sysbios_hal_Hwi_HwiProxy_switchFromBootStack__E                        
1001c295  ti_sysbios_hal_Hwi_delete                                                 
1001c299  ti_sysbios_hal_Hwi_switchFromBootStack__E                                 
1001c29d  ti_sysbios_heaps_HeapMem_Module_GateProxy_enter__E                        
1001c2a1  ti_sysbios_heaps_HeapMem_Module_GateProxy_leave__E                        
1001c2a5  ti_sysbios_heaps_HeapMem_isBlocking__E                                    
1001c2a9  ti_sysbios_knl_Clock_TimerProxy_Module__startupDone__S                    
1001c2ad  ti_sysbios_knl_Clock_TimerProxy_getExpiredTicks__E                        
1001c2b1  ti_sysbios_knl_Clock_TimerProxy_getPeriod__E                              
1001c2b5  ti_sysbios_knl_Clock_delete                                               
1001c2b9  ti_sysbios_knl_Clock_destruct                                             
1001c2bd  ti_sysbios_knl_Clock_removeI__E                                           
1001c2c1  ti_sysbios_knl_Clock_setTimeout__E                                        
1001c2c5  ti_sysbios_knl_Mailbox_delete                                             
1001c2c9  ti_sysbios_knl_Mailbox_destruct                                           
1001c2cd  ti_sysbios_knl_Queue_delete                                               
1001c2d1  ti_sysbios_knl_Queue_destruct                                             
1001c2d5  ti_sysbios_knl_Queue_head__E                                              
1001c2d9  ti_sysbios_knl_Queue_next__E                                              
1001c2dd  ti_sysbios_knl_Semaphore_delete                                           
1001c2e1  ti_sysbios_knl_Semaphore_destruct                                         
1001c2e5  ti_sysbios_knl_Swi_delete                                                 
1001c2e9  ti_sysbios_knl_Swi_destruct                                               
1001c2ed  ti_sysbios_knl_Swi_postInit__I                                            
1001c2f1  ti_sysbios_knl_Task_SupportProxy_Module__startupDone__S                   
1001c2f5  ti_sysbios_knl_Task_SupportProxy_getStackAlignment__E                     
1001c2f9  ti_sysbios_knl_Task_SupportProxy_start__E                                 
1001c2fd  ti_sysbios_knl_Task_SupportProxy_swap__E                                  
1001c301  ti_sysbios_knl_Task_delete                                                
1001c305  ti_sysbios_knl_Task_destruct                                              
1001c309  ti_sysbios_knl_Task_startup__E                                            
1001c30d  xdc_runtime_Startup_startMods__I                                          
1001c405  xdc_runtime_Core_createObject__I                                          
1001c487  xdc_runtime_Error_policySpin__E                                           
1001c489  xdc_runtime_Memory_alloc__E                                               
1001c4f9  xdc_runtime_Core_deleteObject__I                                          
1001c559  xdc_runtime_Startup_exec__E                                               
1001c5a9  xdc_runtime_Assert_raise__I                                               
1001c5f1  xdc_runtime_Core_assignParams__I                                          
1001c639  xdc_runtime_Core_constructObject__I                                       
1001c681  xdc_runtime_System_atexit__E                                              
1001c6b9  xdc_runtime_System_processAtExit__E                                       
1001c6ed  xdc_runtime_Core_assignLabel__I                                           
1001c71d  xdc_runtime_Text_cordText__E                                              
1001c749  xdc_runtime_System_abort__E                                               
1001c769  xdc_runtime_Error_raiseX__E                                               
1001c785  xdc_runtime_Memory_valloc__E                                              
1001c7a1  xdc_runtime_Core_destructObject__I                                        
1001c7b9  xdc_runtime_Error_check__E                                                
1001c7d1  xdc_runtime_System_exit__E                                                
1001c7e9  xdc_runtime_Text_ropeText__E                                              
1001c801  xdc_runtime_Memory_free__E                                                
1001c811  xdc_runtime_SysCallback_abort__E                                          
1001c821  xdc_runtime_SysCallback_exit__E                                           
1001c831  xdc_runtime_Timestamp_SupportProxy_get32__E                               
1001c831  xdc_runtime_Timestamp_get32__E                                            
1001c841  xdc_runtime_Error_init__E                                                 
1001c84d  xdc_runtime_Memory_calloc__E                                              
1001c859  xdc_runtime_Memory_getMaxDefaultTypeAlign__E                              
1001c879  xdc_runtime_Gate_leaveSystem__E                                           
1001c87f  xdc_runtime_System_Module_startup__E                                      
1001c885  xdc_runtime_Gate_enterSystem__E                                           
1001c889  xdc_runtime_Memory_HeapProxy_alloc__E                                     
1001c88d  xdc_runtime_Memory_HeapProxy_free__E                                      
1001c891  xdc_runtime_System_Module_GateProxy_enter__E                              
1001c895  xdc_runtime_System_Module_GateProxy_leave__E                              
1001c899  xdc_runtime_System_abortSpin__E                                           
1001c89b  xdc_runtime_System_exitSpin__E                                            
1001c89d  ti_sysbios_family_arm_m3_Hwi_dispatch__I                                  
1001c96d  ti_sysbios_family_arm_m3_TaskSupport_buildTaskStack                       
1001c9b9  ti_sysbios_family_arm_m3_Hwi_initStacks__E                                
1001ca01  ti_sysbios_family_arm_m3_Hwi_excHandlerAsm__I                             
1001ca21  ti_sysbios_family_xxx_Hwi_switchAndRunFunc                                
1001ca3f  ti_sysbios_family_arm_m3_Hwi_pendSV__I                                    
1001ca57  ti_sysbios_family_arm_m3_Hwi_return                                       
1001ca59  ti_sysbios_family_arm_m3_TaskSupport_glue                                 
1001ca69  ti_sysbios_family_arm_m3_TaskSupport_swap__E                              
1001ca71  ti_sysbios_knl_Task_swapReturn                                            
1001ca9b  ti_sysbios_rom_cortexm_cc26xx_CC26xx_getRevision__E                       
20000000  ti_sysbios_family_arm_m3_Hwi_ramVectors                                   
20000100  ti_sysbios_knl_Task_Module__state__V                                      
20000144  ti_sysbios_family_arm_m3_Hwi_Module__state__V                             
20000178  ti_sysbios_knl_Clock_Module__state__V                                     
200001a4  ti_sysbios_BIOS_Module__state__V                                          
200001c8  ti_sysbios_knl_Swi_Module__state__V                                       
200001e4  ti_sysbios_family_arm_cc26xx_Timer_Module__state__V                       
200001ec  ti_sysbios_family_arm_cc26xx_TimestampProvider_Module__state__V           
200001f0  xdc_runtime_Startup_Module__state__V                                      
200001f8  xdc_runtime_System_Module__state__V                                       
20000200  xdc_runtime_Memory_Module__state__V                                       
20000a08  ti_sysbios_heaps_HeapMem_Instance_State_0_buf__A                          
20000e08  ti_sysbios_knl_Task_Instance_State_0_stack__A                             
20001008  i2cCC26xxObjects                                                          
200012c8  ti_sysbios_family_arm_m3_Hwi_dispatchTable                                
200016a8  PIN_HandleTable                                                           
20001724  nodeRadioTask                                                             
20001774  nodeTask                                                                  
20001a78  radioAccessSem                                                            
20001a94  radioResultSem                                                            
20001b48  nodeEvent                                                                 
20001b70  radioOperationEvent                                                       
20001c10  PIN_NumPins                                                               
20001c35  driverlib_release_0_47020                                                 
20001c38  PowerCC26XX_module                                                        
20001d48  pOverrides                                                                
20001db0  pOverrides_fsk                                                            
20001e18  ti_sysbios_knl_Task_Object__table__V                                      
20001e68  ti_sysbios_family_arm_cc26xx_Timer_Object__table__V                       
20001eb0  RF_pProp_2_4G_fsk                                                         
20001eb4  RF_pProp_fsk                                                              
20001eb8  RF_pProp_lrm                                                              
20001ebc  RF_pProp_ook                                                              
20001ec0  RF_pProp_hsm                                                              
20001ec4  RF_pCmdPropRadioSetup_2_4G_fsk                                            
20001ec8  RF_pCmdPropRadioDivSetup_fsk                                              
20001ecc  RF_pCmdPropRadioDivSetup_lrm                                              
20001ed0  RF_pCmdPropRadioDivSetup_ook                                              
20001ed4  RF_pCmdRadioSetup_hsm                                                     
20001ed8  RF_pCmdFs_preDef                                                          
20001edc  RF_pCmdPropTx_preDef                                                      
20001ee0  RF_pCmdPropRxAdv_preDef                                                   
20001ee4  RF_pCmdTxHS                                                               
20001ee8  RF_pCmdRxHS                                                               
20001eec  ti_sysbios_gates_GateMutex_Object__table__V                               
20001f24  RF_cmdPropRxAdv_preDef                                                    
20001f54  ti_sysbios_knl_Swi_Module_State_0_readyQ__A                               
20001f84  ti_sysbios_knl_Swi_Object__table__V                                       
20001fd8  RF_cmdPropRadioDivSetup                                                   
20001ff8  RF_cmdPropRadioSetup_2_4G_fsk                                             
20002018  pinTable                                                                  
20002038  ti_sysbios_knl_Clock_Object__table__V                                     
20002058  ti_sysbios_knl_Task_Module_State_0_readyQ__A                              
20002094  RF_cmdFs                                                                  
200020ac  RF_cmdFs_preDef                                                           
200020c4  RF_cmdPropTx                                                              
200020dc  RF_cmdPropTx_preDef                                                       
2000210c  shape                                                                     
20002124  shape_preDef                                                              
2000213c  ti_sysbios_family_arm_m3_Hwi_Object__table__V                             
20002154  ti_sysbios_heaps_HeapMem_Object__table__V                                 
2000216c  RF_prop                                                                   
2000217c  RF_prop_2_4G_fsk                                                          
2000218c  _tz                                                                       
200021b8  _lock                                                                     
200021bc  _unlock                                                                   
200021c0  parkingAddress                                                            
200021c4  sleepDuration_Second                                                      
200021c8  ti_sysbios_family_arm_cc26xx_Seconds_Module__state__V                     
200021d0  ti_sysbios_family_arm_m3_Hwi_Module__root__V                              
200021d8  ti_sysbios_gates_GateHwi_Module__root__V                                  
200021e0  ti_sysbios_gates_GateMutex_Module__root__V                                
200021e8  ti_sysbios_hal_Hwi_Module__root__V                                        
200021f0  ti_sysbios_heaps_HeapMem_Module__root__V                                  
200021f8  ti_sysbios_knl_Clock_Module__root__V                                      
20002200  ti_sysbios_knl_Event_Module__root__V                                      
20002208  ti_sysbios_knl_Mailbox_Module__root__V                                    
20002210  ti_sysbios_knl_Queue_Module__root__V                                      
20002218  ti_sysbios_knl_Semaphore_Module__root__V                                  
20002220  ti_sysbios_knl_Swi_Module__root__V                                        
20002228  ti_sysbios_knl_Task_Module__root__V                                       
2000223a  ti_sysbios_family_arm_m3_Hwi_Module_State_0_excActive__A                  
20002240  main_func_sp                                                              
20002244  ti_sysbios_family_arm_m3_Hwi_Module_State_0_excContext__A                 
20002248  ti_sysbios_family_arm_m3_Hwi_Module_State_0_excStack__A                   
2000224c  ti_sysbios_knl_Task_Module_State_0_idleTask__A                            
20004d00  __stack                                                                   
20005000  __STACK_END                                                               
e000e000  ti_sysbios_family_arm_m3_Hwi_nvic                                         
ffffffff  __TI_pprof_out_hndl                                                       
ffffffff  __TI_prof_data_size                                                       
ffffffff  __TI_prof_data_start                                                      
ffffffff  __binit__                                                                 
ffffffff  __c_args__                                                                
ffffffff  binit                                                                     
UNDEFED   HwiP_restore                                                              
UNDEFED   SHT$$INIT_ARRAY$$Base                                                     
UNDEFED   SHT$$INIT_ARRAY$$Limit                                                    
UNDEFED   ti_sysbios_BIOS_RtsGateProxy_Handle__label__S__mangled__                  
UNDEFED   ti_sysbios_BIOS_RtsGateProxy_Object__delete__S__mangled__                 
UNDEFED   ti_sysbios_BIOS_RtsGateProxy_Params__init__S__mangled__                   
UNDEFED   ti_sysbios_BIOS_RtsGateProxy_query__E__mangled__                          
UNDEFED   ti_sysbios_hal_Hwi_HwiProxy_Module__startupDone__S__mangled__             
UNDEFED   ti_sysbios_hal_Hwi_HwiProxy_Object__delete__S__mangled__                  
UNDEFED   ti_sysbios_hal_Hwi_HwiProxy_Params__init__S__mangled__                    
UNDEFED   ti_sysbios_hal_Hwi_HwiProxy_disableInterrupt__E__mangled__                
UNDEFED   ti_sysbios_hal_Hwi_HwiProxy_enableInterrupt__E__mangled__                 
UNDEFED   ti_sysbios_hal_Hwi_HwiProxy_getStackInfo__E__mangled__                    
UNDEFED   ti_sysbios_hal_Hwi_HwiProxy_startup__E__mangled__                         
UNDEFED   ti_sysbios_hal_Hwi_HwiProxy_switchFromBootStack__E__mangled__             
UNDEFED   ti_sysbios_hal_Hwi_disableInterrupt__E                                    
UNDEFED   ti_sysbios_hal_Hwi_enableInterrupt__E                                     
UNDEFED   ti_sysbios_hal_Hwi_getStackInfo__E                                        
UNDEFED   ti_sysbios_hal_Hwi_startup__E                                             
UNDEFED   ti_sysbios_hal_Hwi_switchFromBootStack__E                                 
UNDEFED   ti_sysbios_heaps_HeapMem_Module_GateProxy_Handle__label__S__mangled__     
UNDEFED   ti_sysbios_heaps_HeapMem_Module_GateProxy_Object__delete__S__mangled__    
UNDEFED   ti_sysbios_heaps_HeapMem_Module_GateProxy_Params__init__S__mangled__      
UNDEFED   ti_sysbios_heaps_HeapMem_Module_GateProxy_query__E__mangled__             
UNDEFED   ti_sysbios_knl_Clock_TimerProxy_Module__startupDone__S__mangled__         
UNDEFED   ti_sysbios_knl_Clock_TimerProxy_startup__E__mangled__                     
UNDEFED   ti_sysbios_knl_Task_SupportProxy_Module__startupDone__S__mangled__        
UNDEFED   ti_sysbios_knl_Task_SupportProxy_getStackAlignment__E__mangled__          
UNDEFED   ti_sysbios_knl_Task_SupportProxy_start__E__mangled__                      
UNDEFED   ti_sysbios_knl_Task_SupportProxy_swap__E__mangled__                       
UNDEFED   xdc_runtime_Main_Module_GateProxy_Handle__label__S                        
UNDEFED   xdc_runtime_Main_Module_GateProxy_Object__delete__S                       
UNDEFED   xdc_runtime_Main_Module_GateProxy_query__E                                
UNDEFED   xdc_runtime_Memory_HeapProxy_Handle__label__S__mangled__                  
UNDEFED   xdc_runtime_Memory_HeapProxy_Object__delete__S__mangled__                 
UNDEFED   xdc_runtime_System_Module_GateProxy_Handle__label__S__mangled__           
UNDEFED   xdc_runtime_System_Module_GateProxy_Object__delete__S__mangled__          
UNDEFED   xdc_runtime_System_Module_GateProxy_query__E__mangled__                   
UNDEFED   xdc_runtime_System_SupportProxy_abort__E                                  
UNDEFED   xdc_runtime_System_SupportProxy_exit__E                                   
UNDEFED   xdc_runtime_Timestamp_SupportProxy_get64__E__mangled__                    
UNDEFED   xdc_runtime_Timestamp_SupportProxy_getFreq__E__mangled__                  
UNDEFED   xdc_runtime_Timestamp_get32__E                                            
UNDEFED   xdc_runtime_Timestamp_get64__E                                            
UNDEFED   xdc_runtime_Timestamp_getFreq__E                                          

[814 symbols]
